Component: ARM Compiler 5.06 update 6 (build 750) Tool: armlink [4d35ed]

==============================================================================

Section Cross References

    startup_stm32f10x_hd.o(STACK) refers (Special) to heapauxi.o(.text) for __use_two_region_memory
    startup_stm32f10x_hd.o(HEAP) refers (Special) to heapauxi.o(.text) for __use_two_region_memory
    startup_stm32f10x_hd.o(RESET) refers (Special) to heapauxi.o(.text) for __use_two_region_memory
    startup_stm32f10x_hd.o(RESET) refers to startup_stm32f10x_hd.o(STACK) for __initial_sp
    startup_stm32f10x_hd.o(RESET) refers to startup_stm32f10x_hd.o(.text) for Reset_Handler
    startup_stm32f10x_hd.o(RESET) refers to stm32f10x_it.o(i.NMI_Handler) for NMI_Handler
    startup_stm32f10x_hd.o(RESET) refers to stm32f10x_it.o(i.HardFault_Handler) for HardFault_Handler
    startup_stm32f10x_hd.o(RESET) refers to stm32f10x_it.o(i.MemManage_Handler) for MemManage_Handler
    startup_stm32f10x_hd.o(RESET) refers to stm32f10x_it.o(i.BusFault_Handler) for BusFault_Handler
    startup_stm32f10x_hd.o(RESET) refers to stm32f10x_it.o(i.UsageFault_Handler) for UsageFault_Handler
    startup_stm32f10x_hd.o(RESET) refers to stm32f10x_it.o(i.SVC_Handler) for SVC_Handler
    startup_stm32f10x_hd.o(RESET) refers to stm32f10x_it.o(i.DebugMon_Handler) for DebugMon_Handler
    startup_stm32f10x_hd.o(RESET) refers to stm32f10x_it.o(i.PendSV_Handler) for PendSV_Handler
    startup_stm32f10x_hd.o(RESET) refers to stm32f10x_it.o(i.SysTick_Handler) for SysTick_Handler
    startup_stm32f10x_hd.o(RESET) refers to timer.o(i.TIM3_IRQHandler) for TIM3_IRQHandler
    startup_stm32f10x_hd.o(RESET) refers to timer.o(i.TIM4_IRQHandler) for TIM4_IRQHandler
    startup_stm32f10x_hd.o(RESET) refers to usart.o(i.USART1_IRQHandler) for USART1_IRQHandler
    startup_stm32f10x_hd.o(RESET) refers to usart.o(i.USART2_IRQHandler) for USART2_IRQHandler
    startup_stm32f10x_hd.o(RESET) refers to usart.o(i.USART3_IRQHandler) for USART3_IRQHandler
    startup_stm32f10x_hd.o(.text) refers (Special) to heapauxi.o(.text) for __use_two_region_memory
    startup_stm32f10x_hd.o(.text) refers to system_stm32f10x.o(i.SystemInit) for SystemInit
    startup_stm32f10x_hd.o(.text) refers to __main.o(!!!main) for __main
    startup_stm32f10x_hd.o(.text) refers to startup_stm32f10x_hd.o(HEAP) for Heap_Mem
    startup_stm32f10x_hd.o(.text) refers to startup_stm32f10x_hd.o(STACK) for Stack_Mem
    stm32f10x_adc.o(i.ADC_DeInit) refers to stm32f10x_rcc.o(i.RCC_APB2PeriphResetCmd) for RCC_APB2PeriphResetCmd
    stm32f10x_bkp.o(i.BKP_DeInit) refers to stm32f10x_rcc.o(i.RCC_BackupResetCmd) for RCC_BackupResetCmd
    stm32f10x_flash.o(i.FLASH_EnableWriteProtection) refers to stm32f10x_flash.o(i.FLASH_WaitForLastOperation) for FLASH_WaitForLastOperation
    stm32f10x_flash.o(i.FLASH_EraseAllBank1Pages) refers to stm32f10x_flash.o(i.FLASH_WaitForLastBank1Operation) for FLASH_WaitForLastBank1Operation
    stm32f10x_flash.o(i.FLASH_EraseAllPages) refers to stm32f10x_flash.o(i.FLASH_WaitForLastOperation) for FLASH_WaitForLastOperation
    stm32f10x_flash.o(i.FLASH_EraseOptionBytes) refers to stm32f10x_flash.o(i.FLASH_GetReadOutProtectionStatus) for FLASH_GetReadOutProtectionStatus
    stm32f10x_flash.o(i.FLASH_EraseOptionBytes) refers to stm32f10x_flash.o(i.FLASH_WaitForLastOperation) for FLASH_WaitForLastOperation
    stm32f10x_flash.o(i.FLASH_ErasePage) refers to stm32f10x_flash.o(i.FLASH_WaitForLastOperation) for FLASH_WaitForLastOperation
    stm32f10x_flash.o(i.FLASH_ProgramHalfWord) refers to stm32f10x_flash.o(i.FLASH_WaitForLastOperation) for FLASH_WaitForLastOperation
    stm32f10x_flash.o(i.FLASH_ProgramOptionByteData) refers to stm32f10x_flash.o(i.FLASH_WaitForLastOperation) for FLASH_WaitForLastOperation
    stm32f10x_flash.o(i.FLASH_ProgramWord) refers to stm32f10x_flash.o(i.FLASH_WaitForLastOperation) for FLASH_WaitForLastOperation
    stm32f10x_flash.o(i.FLASH_ReadOutProtection) refers to stm32f10x_flash.o(i.FLASH_WaitForLastOperation) for FLASH_WaitForLastOperation
    stm32f10x_flash.o(i.FLASH_UserOptionByteConfig) refers to stm32f10x_flash.o(i.FLASH_WaitForLastOperation) for FLASH_WaitForLastOperation
    stm32f10x_flash.o(i.FLASH_WaitForLastBank1Operation) refers to stm32f10x_flash.o(i.FLASH_GetBank1Status) for FLASH_GetBank1Status
    stm32f10x_flash.o(i.FLASH_WaitForLastOperation) refers to stm32f10x_flash.o(i.FLASH_GetBank1Status) for FLASH_GetBank1Status
    stm32f10x_gpio.o(i.GPIO_AFIODeInit) refers to stm32f10x_rcc.o(i.RCC_APB2PeriphResetCmd) for RCC_APB2PeriphResetCmd
    stm32f10x_gpio.o(i.GPIO_DeInit) refers to stm32f10x_rcc.o(i.RCC_APB2PeriphResetCmd) for RCC_APB2PeriphResetCmd
    stm32f10x_pwr.o(i.PWR_DeInit) refers to stm32f10x_rcc.o(i.RCC_APB1PeriphResetCmd) for RCC_APB1PeriphResetCmd
    stm32f10x_rcc.o(i.RCC_GetClocksFreq) refers to stm32f10x_rcc.o(.data) for APBAHBPrescTable
    stm32f10x_rcc.o(i.RCC_WaitForHSEStartUp) refers to stm32f10x_rcc.o(i.RCC_GetFlagStatus) for RCC_GetFlagStatus
    stm32f10x_rtc.o(i.RTC_SetAlarm) refers to stm32f10x_rtc.o(i.RTC_EnterConfigMode) for RTC_EnterConfigMode
    stm32f10x_rtc.o(i.RTC_SetAlarm) refers to stm32f10x_rtc.o(i.RTC_ExitConfigMode) for RTC_ExitConfigMode
    stm32f10x_rtc.o(i.RTC_SetCounter) refers to stm32f10x_rtc.o(i.RTC_EnterConfigMode) for RTC_EnterConfigMode
    stm32f10x_rtc.o(i.RTC_SetCounter) refers to stm32f10x_rtc.o(i.RTC_ExitConfigMode) for RTC_ExitConfigMode
    stm32f10x_rtc.o(i.RTC_SetPrescaler) refers to stm32f10x_rtc.o(i.RTC_EnterConfigMode) for RTC_EnterConfigMode
    stm32f10x_rtc.o(i.RTC_SetPrescaler) refers to stm32f10x_rtc.o(i.RTC_ExitConfigMode) for RTC_ExitConfigMode
    stm32f10x_spi.o(i.I2S_Init) refers to stm32f10x_rcc.o(i.RCC_GetClocksFreq) for RCC_GetClocksFreq
    stm32f10x_spi.o(i.SPI_I2S_DeInit) refers to stm32f10x_rcc.o(i.RCC_APB2PeriphResetCmd) for RCC_APB2PeriphResetCmd
    stm32f10x_spi.o(i.SPI_I2S_DeInit) refers to stm32f10x_rcc.o(i.RCC_APB1PeriphResetCmd) for RCC_APB1PeriphResetCmd
    stm32f10x_tim.o(i.TIM_DeInit) refers to stm32f10x_rcc.o(i.RCC_APB2PeriphResetCmd) for RCC_APB2PeriphResetCmd
    stm32f10x_tim.o(i.TIM_DeInit) refers to stm32f10x_rcc.o(i.RCC_APB1PeriphResetCmd) for RCC_APB1PeriphResetCmd
    stm32f10x_tim.o(i.TIM_ETRClockMode1Config) refers to stm32f10x_tim.o(i.TIM_ETRConfig) for TIM_ETRConfig
    stm32f10x_tim.o(i.TIM_ETRClockMode2Config) refers to stm32f10x_tim.o(i.TIM_ETRConfig) for TIM_ETRConfig
    stm32f10x_tim.o(i.TIM_ICInit) refers to stm32f10x_tim.o(i.TI1_Config) for TI1_Config
    stm32f10x_tim.o(i.TIM_ICInit) refers to stm32f10x_tim.o(i.TIM_SetIC1Prescaler) for TIM_SetIC1Prescaler
    stm32f10x_tim.o(i.TIM_ICInit) refers to stm32f10x_tim.o(i.TI2_Config) for TI2_Config
    stm32f10x_tim.o(i.TIM_ICInit) refers to stm32f10x_tim.o(i.TIM_SetIC2Prescaler) for TIM_SetIC2Prescaler
    stm32f10x_tim.o(i.TIM_ICInit) refers to stm32f10x_tim.o(i.TI3_Config) for TI3_Config
    stm32f10x_tim.o(i.TIM_ICInit) refers to stm32f10x_tim.o(i.TIM_SetIC3Prescaler) for TIM_SetIC3Prescaler
    stm32f10x_tim.o(i.TIM_ICInit) refers to stm32f10x_tim.o(i.TI4_Config) for TI4_Config
    stm32f10x_tim.o(i.TIM_ICInit) refers to stm32f10x_tim.o(i.TIM_SetIC4Prescaler) for TIM_SetIC4Prescaler
    stm32f10x_tim.o(i.TIM_ITRxExternalClockConfig) refers to stm32f10x_tim.o(i.TIM_SelectInputTrigger) for TIM_SelectInputTrigger
    stm32f10x_tim.o(i.TIM_PWMIConfig) refers to stm32f10x_tim.o(i.TI1_Config) for TI1_Config
    stm32f10x_tim.o(i.TIM_PWMIConfig) refers to stm32f10x_tim.o(i.TIM_SetIC1Prescaler) for TIM_SetIC1Prescaler
    stm32f10x_tim.o(i.TIM_PWMIConfig) refers to stm32f10x_tim.o(i.TI2_Config) for TI2_Config
    stm32f10x_tim.o(i.TIM_PWMIConfig) refers to stm32f10x_tim.o(i.TIM_SetIC2Prescaler) for TIM_SetIC2Prescaler
    stm32f10x_tim.o(i.TIM_TIxExternalClockConfig) refers to stm32f10x_tim.o(i.TI2_Config) for TI2_Config
    stm32f10x_tim.o(i.TIM_TIxExternalClockConfig) refers to stm32f10x_tim.o(i.TI1_Config) for TI1_Config
    stm32f10x_tim.o(i.TIM_TIxExternalClockConfig) refers to stm32f10x_tim.o(i.TIM_SelectInputTrigger) for TIM_SelectInputTrigger
    stm32f10x_usart.o(i.USART_DeInit) refers to stm32f10x_rcc.o(i.RCC_APB2PeriphResetCmd) for RCC_APB2PeriphResetCmd
    stm32f10x_usart.o(i.USART_DeInit) refers to stm32f10x_rcc.o(i.RCC_APB1PeriphResetCmd) for RCC_APB1PeriphResetCmd
    stm32f10x_usart.o(i.USART_Init) refers to stm32f10x_rcc.o(i.RCC_GetClocksFreq) for RCC_GetClocksFreq
    stm32f10x_wwdg.o(i.WWDG_DeInit) refers to stm32f10x_rcc.o(i.RCC_APB1PeriphResetCmd) for RCC_APB1PeriphResetCmd
    adc.o(i.Adc_Init) refers to stm32f10x_rcc.o(i.RCC_APB2PeriphClockCmd) for RCC_APB2PeriphClockCmd
    adc.o(i.Adc_Init) refers to stm32f10x_rcc.o(i.RCC_ADCCLKConfig) for RCC_ADCCLKConfig
    adc.o(i.Adc_Init) refers to stm32f10x_adc.o(i.ADC_DeInit) for ADC_DeInit
    adc.o(i.Adc_Init) refers to stm32f10x_adc.o(i.ADC_TempSensorVrefintCmd) for ADC_TempSensorVrefintCmd
    adc.o(i.Adc_Init) refers to stm32f10x_adc.o(i.ADC_Init) for ADC_Init
    adc.o(i.Adc_Init) refers to stm32f10x_adc.o(i.ADC_RegularChannelConfig) for ADC_RegularChannelConfig
    adc.o(i.Adc_Init) refers to stm32f10x_adc.o(i.ADC_DMACmd) for ADC_DMACmd
    adc.o(i.Adc_Init) refers to stm32f10x_adc.o(i.ADC_Cmd) for ADC_Cmd
    adc.o(i.Adc_Init) refers to stm32f10x_adc.o(i.ADC_ResetCalibration) for ADC_ResetCalibration
    adc.o(i.Adc_Init) refers to stm32f10x_adc.o(i.ADC_GetResetCalibrationStatus) for ADC_GetResetCalibrationStatus
    adc.o(i.Adc_Init) refers to stm32f10x_adc.o(i.ADC_StartCalibration) for ADC_StartCalibration
    adc.o(i.Adc_Init) refers to stm32f10x_adc.o(i.ADC_GetCalibrationStatus) for ADC_GetCalibrationStatus
    adc.o(i.Adc_Init) refers to adc.o(i.MYDMA_Config) for MYDMA_Config
    adc.o(i.Adc_Init) refers to stm32f10x_dma.o(i.DMA_Cmd) for DMA_Cmd
    adc.o(i.Adc_Init) refers to stm32f10x_adc.o(i.ADC_SoftwareStartConvCmd) for ADC_SoftwareStartConvCmd
    adc.o(i.Adc_Init) refers to adc.o(.bss) for AD_Value
    adc.o(i.Get_Adc_Average) refers to adc.o(.bss) for AD_Value
    adc.o(i.Get_CPU_Temprate) refers to adc.o(i.Get_Adc_Average) for Get_Adc_Average
    adc.o(i.Get_CPU_Temprate) refers to fflt_clz.o(x$fpl$ffltu) for __aeabi_ui2f
    adc.o(i.Get_CPU_Temprate) refers to f2d.o(x$fpl$f2d) for __aeabi_f2d
    adc.o(i.Get_CPU_Temprate) refers to dmul.o(x$fpl$dmul) for __aeabi_dmul
    adc.o(i.Get_CPU_Temprate) refers to d2f.o(x$fpl$d2f) for __aeabi_d2f
    adc.o(i.Get_CPU_Temprate) refers to daddsub_clz.o(x$fpl$dsub) for __aeabi_dsub
    adc.o(i.Get_CPU_Temprate) refers to ddiv.o(x$fpl$ddiv) for __aeabi_ddiv
    adc.o(i.Get_CPU_Temprate) refers to daddsub_clz.o(x$fpl$dadd) for __aeabi_dadd
    adc.o(i.MYDMA_Config) refers to stm32f10x_rcc.o(i.RCC_AHBPeriphClockCmd) for RCC_AHBPeriphClockCmd
    adc.o(i.MYDMA_Config) refers to stm32f10x_dma.o(i.DMA_DeInit) for DMA_DeInit
    adc.o(i.MYDMA_Config) refers to stm32f10x_dma.o(i.DMA_Init) for DMA_Init
    delay.o(i.delay_init) refers to misc.o(i.SysTick_CLKSourceConfig) for SysTick_CLKSourceConfig
    delay.o(i.delay_init) refers to system_stm32f10x.o(.data) for SystemCoreClock
    delay.o(i.delay_init) refers to delay.o(.data) for fac_us
    delay.o(i.delay_ms) refers to delay.o(.data) for fac_ms
    delay.o(i.delay_us) refers to delay.o(.data) for fac_us
    led.o(i.user_led_init) refers to stm32f10x_rcc.o(i.RCC_APB2PeriphClockCmd) for RCC_APB2PeriphClockCmd
    led.o(i.user_led_init) refers to stm32f10x_gpio.o(i.GPIO_Init) for GPIO_Init
    led.o(i.user_led_loop) refers to timer.o(i.Get_SysTick) for Get_SysTick
    led.o(i.user_led_loop) refers to user_m5310.o(i.Get_login_success_flag) for Get_login_success_flag
    led.o(i.user_led_loop) refers to led.o(.data) for softimersec
    led.o(i.user_led_milliloop) refers to timer.o(i.Get_SysmilliTick) for Get_SysmilliTick
    led.o(i.user_led_milliloop) refers to led.o(.data) for softimersec
    led.o(i.user_led_task) refers to led.o(i.user_led_milliloop) for user_led_milliloop
    led.o(i.user_led_task) refers to led.o(i.user_led_loop) for user_led_loop
    stmflash.o(i.STMFLASH_Read) refers to stmflash.o(i.STMFLASH_ReadHalfWord) for STMFLASH_ReadHalfWord
    stmflash.o(i.STMFLASH_Write) refers to memcmp.o(.text) for memcmp
    stmflash.o(i.STMFLASH_Write) refers to aeabi_memset.o(.text) for __aeabi_memset
    stmflash.o(i.STMFLASH_Write) refers to stmflash.o(i.STMFLASH_Read) for STMFLASH_Read
    stmflash.o(i.STMFLASH_Write) refers to stm32f10x_flash.o(i.FLASH_Unlock) for FLASH_Unlock
    stmflash.o(i.STMFLASH_Write) refers to stm32f10x_flash.o(i.FLASH_ErasePage) for FLASH_ErasePage
    stmflash.o(i.STMFLASH_Write) refers to stmflash.o(i.STMFLASH_Write_NoCheck) for STMFLASH_Write_NoCheck
    stmflash.o(i.STMFLASH_Write) refers to stm32f10x_flash.o(i.FLASH_Lock) for FLASH_Lock
    stmflash.o(i.STMFLASH_Write) refers to rt_memclr.o(.text) for __aeabi_memclr
    stmflash.o(i.STMFLASH_Write) refers to stmflash.o(.bss) for STMFLASH_BUF
    stmflash.o(i.STMFLASH_Write_NoCheck) refers to stm32f10x_flash.o(i.FLASH_ProgramHalfWord) for FLASH_ProgramHalfWord
    sys.o(i.NVIC_Configuration) refers to misc.o(i.NVIC_PriorityGroupConfig) for NVIC_PriorityGroupConfig
    timer.o(i.Get_MillisecTimer_Bluetooth_delay) refers to timer.o(.data) for bluetooth_delay_millisec
    timer.o(i.Get_MillisecTimer_NBIOT_delay) refers to timer.o(.data) for socket_delay_millisec
    timer.o(i.Get_SysRunTick) refers to timer.o(.data) for Run_sec_tick
    timer.o(i.Get_SysTick) refers to timer.o(.data) for sec_tick
    timer.o(i.Get_SysmilliTick) refers to timer.o(.data) for millisec_tick
    timer.o(i.Set_MillisecTimer_Bluetooth_delay) refers to timer.o(.data) for bluetooth_delay_millisec
    timer.o(i.Set_MillisecTimer_NBIOT_delay) refers to timer.o(.data) for socket_delay_millisec
    timer.o(i.Set_MillisecTimer_Rs485_delay) refers to timer.o(.data) for rs485_delay_millisec
    timer.o(i.Set_MillisecTimer_Sensor_Rs485_delay) refers to timer.o(.data) for sensor_rs485_delay_millisec
    timer.o(i.TIM3_IRQHandler) refers to stm32f10x_tim.o(i.TIM_GetITStatus) for TIM_GetITStatus
    timer.o(i.TIM3_IRQHandler) refers to stm32f10x_tim.o(i.TIM_ClearITPendingBit) for TIM_ClearITPendingBit
    timer.o(i.TIM3_IRQHandler) refers to timer.o(.data) for sec_tick
    timer.o(i.TIM3_Int_Init) refers to stm32f10x_rcc.o(i.RCC_APB1PeriphClockCmd) for RCC_APB1PeriphClockCmd
    timer.o(i.TIM3_Int_Init) refers to stm32f10x_tim.o(i.TIM_TimeBaseInit) for TIM_TimeBaseInit
    timer.o(i.TIM3_Int_Init) refers to stm32f10x_tim.o(i.TIM_ITConfig) for TIM_ITConfig
    timer.o(i.TIM3_Int_Init) refers to misc.o(i.NVIC_Init) for NVIC_Init
    timer.o(i.TIM3_Int_Init) refers to stm32f10x_tim.o(i.TIM_Cmd) for TIM_Cmd
    timer.o(i.TIM3_set_tick) refers to stm32f10x_tim.o(i.TIM_ITConfig) for TIM_ITConfig
    timer.o(i.TIM3_set_tick) refers to timer.o(.data) for sec_tick
    timer.o(i.TIM4_IRQHandler) refers to stm32f10x_tim.o(i.TIM_GetITStatus) for TIM_GetITStatus
    timer.o(i.TIM4_IRQHandler) refers to stm32f10x_tim.o(i.TIM_ClearITPendingBit) for TIM_ClearITPendingBit
    timer.o(i.TIM4_IRQHandler) refers to timer.o(.data) for millisec_tick
    timer.o(i.TIM4_Int_Init) refers to stm32f10x_rcc.o(i.RCC_APB1PeriphClockCmd) for RCC_APB1PeriphClockCmd
    timer.o(i.TIM4_Int_Init) refers to stm32f10x_tim.o(i.TIM_TimeBaseInit) for TIM_TimeBaseInit
    timer.o(i.TIM4_Int_Init) refers to stm32f10x_tim.o(i.TIM_ITConfig) for TIM_ITConfig
    timer.o(i.TIM4_Int_Init) refers to misc.o(i.NVIC_Init) for NVIC_Init
    timer.o(i.TIM4_Int_Init) refers to stm32f10x_tim.o(i.TIM_Cmd) for TIM_Cmd
    usart.o(i.USART1_IRQHandler) refers to stm32f10x_usart.o(i.USART_GetITStatus) for USART_GetITStatus
    usart.o(i.USART1_IRQHandler) refers to stm32f10x_usart.o(i.USART_ReceiveData) for USART_ReceiveData
    usart.o(i.USART1_IRQHandler) refers to timer.o(i.Get_SysmilliTick) for Get_SysmilliTick
    usart.o(i.USART1_IRQHandler) refers to usart.o(.bss) for uart_pipe1
    usart.o(i.USART2_IRQHandler) refers to stm32f10x_usart.o(i.USART_GetITStatus) for USART_GetITStatus
    usart.o(i.USART2_IRQHandler) refers to stm32f10x_usart.o(i.USART_ReceiveData) for USART_ReceiveData
    usart.o(i.USART2_IRQHandler) refers to public.o(i.Pipe_Block_Input) for Pipe_Block_Input
    usart.o(i.USART2_IRQHandler) refers to usart.o(.data) for uart_pipe2
    usart.o(i.USART3_IRQHandler) refers to stm32f10x_usart.o(i.USART_GetITStatus) for USART_GetITStatus
    usart.o(i.USART3_IRQHandler) refers to stm32f10x_usart.o(i.USART_ReceiveData) for USART_ReceiveData
    usart.o(i.USART3_IRQHandler) refers to timer.o(i.Get_SysmilliTick) for Get_SysmilliTick
    usart.o(i.USART3_IRQHandler) refers to usart.o(.bss) for uart_pipe3
    usart.o(i.get_txBuffer) refers to public.o(.bss) for _txBuffer
    usart.o(i.reset_uart_pipe1) refers to rt_memclr.o(.text) for __aeabi_memclr
    usart.o(i.reset_uart_pipe1) refers to usart.o(.bss) for uart_pipe1
    usart.o(i.reset_uart_pipe2) refers to public.o(i.Pipe1_Reset) for Pipe1_Reset
    usart.o(i.reset_uart_pipe2) refers to usart.o(.data) for uart_pipe2_log
    usart.o(i.reset_uart_pipe3) refers to rt_memclr.o(.text) for __aeabi_memclr
    usart.o(i.reset_uart_pipe3) refers to usart.o(.bss) for uart_pipe3
    usart.o(i.uart1_init) refers to stm32f10x_rcc.o(i.RCC_APB2PeriphClockCmd) for RCC_APB2PeriphClockCmd
    usart.o(i.uart1_init) refers to stm32f10x_usart.o(i.USART_DeInit) for USART_DeInit
    usart.o(i.uart1_init) refers to stm32f10x_gpio.o(i.GPIO_Init) for GPIO_Init
    usart.o(i.uart1_init) refers to stm32f10x_usart.o(i.USART_Init) for USART_Init
    usart.o(i.uart1_init) refers to misc.o(i.NVIC_Init) for NVIC_Init
    usart.o(i.uart1_init) refers to stm32f10x_usart.o(i.USART_ITConfig) for USART_ITConfig
    usart.o(i.uart1_init) refers to stm32f10x_usart.o(i.USART_Cmd) for USART_Cmd
    usart.o(i.uart1_init) refers to usart.o(i.reset_uart_pipe1) for reset_uart_pipe1
    usart.o(i.uart1_output) refers to stm32f10x_usart.o(i.USART_GetFlagStatus) for USART_GetFlagStatus
    usart.o(i.uart1_output) refers to stm32f10x_usart.o(i.USART_SendData) for USART_SendData
    usart.o(i.uart1_printf) refers to strlen.o(.text) for strlen
    usart.o(i.uart1_printf) refers to rt_memclr.o(.text) for __aeabi_memclr
    usart.o(i.uart1_printf) refers to vsprintf.o(.text) for vsprintf
    usart.o(i.uart1_printf) refers to usart.o(i.uart1_output) for uart1_output
    usart.o(i.uart1_printf) refers to public.o(.bss) for _txBuffer
    usart.o(i.uart2_init) refers to stm32f10x_rcc.o(i.RCC_APB2PeriphClockCmd) for RCC_APB2PeriphClockCmd
    usart.o(i.uart2_init) refers to stm32f10x_rcc.o(i.RCC_APB1PeriphClockCmd) for RCC_APB1PeriphClockCmd
    usart.o(i.uart2_init) refers to stm32f10x_usart.o(i.USART_DeInit) for USART_DeInit
    usart.o(i.uart2_init) refers to stm32f10x_gpio.o(i.GPIO_Init) for GPIO_Init
    usart.o(i.uart2_init) refers to stm32f10x_usart.o(i.USART_Init) for USART_Init
    usart.o(i.uart2_init) refers to misc.o(i.NVIC_Init) for NVIC_Init
    usart.o(i.uart2_init) refers to stm32f10x_usart.o(i.USART_ITConfig) for USART_ITConfig
    usart.o(i.uart2_init) refers to stm32f10x_usart.o(i.USART_Cmd) for USART_Cmd
    usart.o(i.uart2_init) refers to usart.o(i.reset_uart_pipe2) for reset_uart_pipe2
    usart.o(i.uart2_output) refers to stm32f10x_usart.o(i.USART_GetFlagStatus) for USART_GetFlagStatus
    usart.o(i.uart2_output) refers to stm32f10x_usart.o(i.USART_SendData) for USART_SendData
    usart.o(i.uart2_printf) refers to strlen.o(.text) for strlen
    usart.o(i.uart2_printf) refers to rt_memclr.o(.text) for __aeabi_memclr
    usart.o(i.uart2_printf) refers to vsprintf.o(.text) for vsprintf
    usart.o(i.uart2_printf) refers to usart.o(i.uart2_output) for uart2_output
    usart.o(i.uart2_printf) refers to public.o(.bss) for _txBuffer
    usart.o(i.uart3_init) refers to stm32f10x_rcc.o(i.RCC_APB2PeriphClockCmd) for RCC_APB2PeriphClockCmd
    usart.o(i.uart3_init) refers to stm32f10x_rcc.o(i.RCC_APB1PeriphClockCmd) for RCC_APB1PeriphClockCmd
    usart.o(i.uart3_init) refers to stm32f10x_usart.o(i.USART_DeInit) for USART_DeInit
    usart.o(i.uart3_init) refers to stm32f10x_gpio.o(i.GPIO_Init) for GPIO_Init
    usart.o(i.uart3_init) refers to stm32f10x_usart.o(i.USART_Init) for USART_Init
    usart.o(i.uart3_init) refers to misc.o(i.NVIC_Init) for NVIC_Init
    usart.o(i.uart3_init) refers to stm32f10x_usart.o(i.USART_ITConfig) for USART_ITConfig
    usart.o(i.uart3_init) refers to stm32f10x_usart.o(i.USART_Cmd) for USART_Cmd
    usart.o(i.uart3_init) refers to usart.o(i.reset_uart_pipe3) for reset_uart_pipe3
    usart.o(i.uart3_output) refers to stm32f10x_usart.o(i.USART_GetFlagStatus) for USART_GetFlagStatus
    usart.o(i.uart3_output) refers to stm32f10x_usart.o(i.USART_SendData) for USART_SendData
    usart.o(i.uart3_printf) refers to strlen.o(.text) for strlen
    usart.o(i.uart3_printf) refers to rt_memclr.o(.text) for __aeabi_memclr
    usart.o(i.uart3_printf) refers to vsprintf.o(.text) for vsprintf
    usart.o(i.uart3_printf) refers to usart.o(i.uart3_output) for uart3_output
    usart.o(i.uart3_printf) refers to public.o(.bss) for _txBuffer
    usart.o(i.uart_init) refers to usart.o(i.uart1_init) for uart1_init
    usart.o(i.uart_init) refers to usart.o(i.uart2_init) for uart2_init
    usart.o(i.uart_init) refers to usart.o(i.uart3_init) for uart3_init
    usart.o(.data) refers to usart.o(.bss) for USART2_RX_BUFER
    wdg.o(i.IWDG_Feed) refers to stm32f10x_iwdg.o(i.IWDG_ReloadCounter) for IWDG_ReloadCounter
    wdg.o(i.IWDG_Init) refers to stm32f10x_iwdg.o(i.IWDG_WriteAccessCmd) for IWDG_WriteAccessCmd
    wdg.o(i.IWDG_Init) refers to stm32f10x_iwdg.o(i.IWDG_SetPrescaler) for IWDG_SetPrescaler
    wdg.o(i.IWDG_Init) refers to stm32f10x_iwdg.o(i.IWDG_SetReload) for IWDG_SetReload
    wdg.o(i.IWDG_Init) refers to stm32f10x_iwdg.o(i.IWDG_ReloadCounter) for IWDG_ReloadCounter
    wdg.o(i.IWDG_Init) refers to stm32f10x_iwdg.o(i.IWDG_Enable) for IWDG_Enable
    m5310_hard.o(i.NBIOT_Send_Packet) refers to m5310_hard.o(i.NBIOT_send_pipe_input) for NBIOT_send_pipe_input
    m5310_hard.o(i.NBIOT_normal_output) refers to stm32f10x_usart.o(i.USART_GetFlagStatus) for USART_GetFlagStatus
    m5310_hard.o(i.NBIOT_normal_output) refers to timer.o(i.Get_SysmilliTick) for Get_SysmilliTick
    m5310_hard.o(i.NBIOT_normal_output) refers to timer.o(i.Get_MillisecTimer_NBIOT_delay) for Get_MillisecTimer_NBIOT_delay
    m5310_hard.o(i.NBIOT_normal_output) refers to stm32f10x_usart.o(i.USART_SendData) for USART_SendData
    m5310_hard.o(i.NBIOT_normal_output) refers to timer.o(i.Set_MillisecTimer_NBIOT_delay) for Set_MillisecTimer_NBIOT_delay
    m5310_hard.o(i.NBIOT_normal_output) refers to m5310_hard.o(.data) for nbiot_send_pipe
    m5310_hard.o(i.NBIOT_send_pipe_input) refers to rt_memcpy_v6.o(.text) for __aeabi_memcpy
    m5310_hard.o(i.NBIOT_send_pipe_input) refers to m5310_hard.o(.data) for nbiot_send_pipe
    m5310_hard.o(.data) refers to m5310_hard.o(.bss) for nbiot_SEND_PIPE_BUF
    nbiot_power.o(i.nbiot_power_init) refers to stm32f10x_rcc.o(i.RCC_APB2PeriphClockCmd) for RCC_APB2PeriphClockCmd
    nbiot_power.o(i.nbiot_power_init) refers to stm32f10x_gpio.o(i.GPIO_Init) for GPIO_Init
    nbiot_power.o(i.nbiot_power_init) refers to nbiot_power.o(i.nbiot_power_reset) for nbiot_power_reset
    nbiot_power.o(i.nbiot_power_isenable) refers to nbiot_power.o(.data) for nbiot_power_enable
    nbiot_power.o(i.nbiot_power_loop) refers to nbiot_power.o(i.nbiot_power_on) for nbiot_power_on
    nbiot_power.o(i.nbiot_power_loop) refers to nbiot_power.o(.data) for nbiot_power_reset_event
    nbiot_power.o(i.nbiot_power_off) refers to stm32f10x_gpio.o(i.GPIO_ResetBits) for GPIO_ResetBits
    nbiot_power.o(i.nbiot_power_off) refers to nbiot_power.o(.data) for nbiot_power_enable
    nbiot_power.o(i.nbiot_power_on) refers to stm32f10x_gpio.o(i.GPIO_SetBits) for GPIO_SetBits
    nbiot_power.o(i.nbiot_power_on) refers to nbiot_power.o(.data) for nbiot_power_enable
    nbiot_power.o(i.nbiot_power_reset) refers to nbiot_power.o(i.nbiot_power_off) for nbiot_power_off
    nbiot_power.o(i.nbiot_power_reset) refers to nbiot_power.o(.data) for nbiot_power_reset_event
    dht11.o(i.DHT11_Get_temphumi) refers to dht11.o(i.Read_DHT11) for Read_DHT11
    dht11.o(i.DHT11_Get_temphumi) refers to fflt_clz.o(x$fpl$fflt) for __aeabi_i2f
    dht11.o(i.DHT11_Get_temphumi) refers to dht11.o(.data) for DHT11_data
    dht11.o(i.DHT11_Mode_IPU) refers to stm32f10x_gpio.o(i.GPIO_Init) for GPIO_Init
    dht11.o(i.DHT11_Mode_Out_PP) refers to stm32f10x_gpio.o(i.GPIO_Init) for GPIO_Init
    dht11.o(i.DHT11_init) refers to stm32f10x_rcc.o(i.RCC_APB2PeriphClockCmd) for RCC_APB2PeriphClockCmd
    dht11.o(i.DHT11_init) refers to stm32f10x_gpio.o(i.GPIO_Init) for GPIO_Init
    dht11.o(i.DHT11_init) refers to stm32f10x_gpio.o(i.GPIO_SetBits) for GPIO_SetBits
    dht11.o(i.DHT11_loop) refers to timer.o(i.Get_SysTick) for Get_SysTick
    dht11.o(i.DHT11_loop) refers to dht11.o(i.DHT11_Get_temphumi) for DHT11_Get_temphumi
    dht11.o(i.DHT11_loop) refers to dht11.o(.data) for softimersec
    dht11.o(i.DHT11_task) refers to dht11.o(i.DHT11_loop) for DHT11_loop
    dht11.o(i.Get_Dht11_Data) refers to dht11.o(.data) for dht11_t
    dht11.o(i.Read_Byte) refers to stm32f10x_gpio.o(i.GPIO_ReadInputDataBit) for GPIO_ReadInputDataBit
    dht11.o(i.Read_Byte) refers to delay.o(i.delay_us) for delay_us
    dht11.o(i.Read_DHT11) refers to dht11.o(i.DHT11_Mode_Out_PP) for DHT11_Mode_Out_PP
    dht11.o(i.Read_DHT11) refers to stm32f10x_gpio.o(i.GPIO_ResetBits) for GPIO_ResetBits
    dht11.o(i.Read_DHT11) refers to delay.o(i.delay_ms) for delay_ms
    dht11.o(i.Read_DHT11) refers to stm32f10x_gpio.o(i.GPIO_SetBits) for GPIO_SetBits
    dht11.o(i.Read_DHT11) refers to delay.o(i.delay_us) for delay_us
    dht11.o(i.Read_DHT11) refers to dht11.o(i.DHT11_Mode_IPU) for DHT11_Mode_IPU
    dht11.o(i.Read_DHT11) refers to stm32f10x_gpio.o(i.GPIO_ReadInputDataBit) for GPIO_ReadInputDataBit
    dht11.o(i.Read_DHT11) refers to dht11.o(i.Read_Byte) for Read_Byte
    main.o(i.SoftTimer) refers to timer.o(i.Get_SysTick) for Get_SysTick
    main.o(i.SoftTimer) refers to config.o(i.Config_Loop) for Config_Loop
    main.o(i.SoftTimer) refers to usart.o(i.uart2_printf) for uart2_printf
    main.o(i.SoftTimer) refers to main.o(.data) for _tick
    main.o(i.main) refers to delay.o(i.delay_init) for delay_init
    main.o(i.main) refers to led.o(i.user_led_init) for user_led_init
    main.o(i.main) refers to sys.o(i.NVIC_Configuration) for NVIC_Configuration
    main.o(i.main) refers to timer.o(i.TIM3_Int_Init) for TIM3_Int_Init
    main.o(i.main) refers to timer.o(i.TIM4_Int_Init) for TIM4_Int_Init
    main.o(i.main) refers to user_m5310.o(i.NBIOT_init) for NBIOT_init
    main.o(i.main) refers to main.o(i.SoftTimer) for SoftTimer
    main.o(i.main) refers to led.o(i.user_led_task) for user_led_task
    main.o(i.main) refers to user_m5310.o(i.NBIOT_task) for NBIOT_task
    chip_flash.o(i.chip_crc_flash) refers to rt_memclr_w.o(.text) for __aeabi_memclr4
    chip_flash.o(i.chip_crc_flash) refers to chip_flash.o(i.chip_read_flash) for chip_read_flash
    chip_flash.o(i.chip_crc_flash) refers to oscrc32.o(i.u4_oscrc32) for u4_oscrc32
    chip_flash.o(i.chip_erase_flash) refers to stm32f10x_flash.o(i.FLASH_ErasePage) for FLASH_ErasePage
    chip_flash.o(i.chip_erase_flash) refers to delay.o(i.delay_ms) for delay_ms
    chip_flash.o(i.chip_read_app_header) refers to stmflash.o(i.STMFLASH_Read) for STMFLASH_Read
    chip_flash.o(i.chip_read_flash) refers to stmflash.o(i.STMFLASH_Read) for STMFLASH_Read
    chip_flash.o(i.chip_write_app_header) refers to stmflash.o(i.STMFLASH_Write) for STMFLASH_Write
    chip_flash.o(i.chip_write_flash) refers to stmflash.o(i.STMFLASH_Write) for STMFLASH_Write
    common.o(i.Reverse_Stream_Order_2byte) refers to common.o(.data) for myunion
    common.o(i.Reverse_Stream_Order_4byte) refers to common.o(.data) for myunion
    common.o(i.Reverse_Stream_Order_8byte) refers to common.o(.data) for myunion
    common.o(i.Reverse_Stream_Order_DOU) refers to common.o(i.Reverse_Stream_Order_8byte) for Reverse_Stream_Order_8byte
    common.o(i.Reverse_Stream_Order_DOU) refers to common.o(.data) for myunion
    common.o(i.Reverse_Stream_Order_Float) refers to common.o(i.Reverse_Stream_Order_4byte) for Reverse_Stream_Order_4byte
    common.o(i.Reverse_Stream_Order_Float) refers to common.o(.data) for myunion
    common.o(i.Reverse_Stream_Order_Int) refers to common.o(i.Reverse_Stream_Order_Long) for Reverse_Stream_Order_Long
    common.o(i.Reverse_Stream_Order_LL) refers to common.o(i.Reverse_Stream_Order_8byte) for Reverse_Stream_Order_8byte
    common.o(i.Reverse_Stream_Order_LL) refers to common.o(.data) for myunion
    common.o(i.Reverse_Stream_Order_Long) refers to common.o(i.Reverse_Stream_Order_4byte) for Reverse_Stream_Order_4byte
    common.o(i.Reverse_Stream_Order_Long) refers to common.o(.data) for myunion
    common.o(i.Reverse_Stream_Order_Short) refers to common.o(i.Reverse_Stream_Order_2byte) for Reverse_Stream_Order_2byte
    common.o(i.Reverse_Stream_Order_Short) refers to common.o(.data) for myunion
    common.o(i.Reverse_Stream_Order_UInt) refers to common.o(i.Reverse_Stream_Order_ULong) for Reverse_Stream_Order_ULong
    common.o(i.Reverse_Stream_Order_ULL) refers to common.o(i.Reverse_Stream_Order_8byte) for Reverse_Stream_Order_8byte
    common.o(i.Reverse_Stream_Order_ULL) refers to common.o(.data) for myunion
    common.o(i.Reverse_Stream_Order_ULong) refers to common.o(i.Reverse_Stream_Order_4byte) for Reverse_Stream_Order_4byte
    common.o(i.Reverse_Stream_Order_ULong) refers to common.o(.data) for myunion
    common.o(i.Reverse_Stream_Order_Ushort) refers to common.o(i.Reverse_Stream_Order_2byte) for Reverse_Stream_Order_2byte
    common.o(i.Reverse_Stream_Order_Ushort) refers to common.o(.data) for myunion
    common.o(i.decode_number) refers to dmul.o(x$fpl$dmul) for __aeabi_dmul
    common.o(i.decode_number) refers to dflt_clz.o(x$fpl$dflt) for __aeabi_i2d
    common.o(i.decode_number) refers to daddsub_clz.o(x$fpl$dadd) for __aeabi_dadd
    common.o(i.hexbytestr_to_num) refers to common.o(i.char_to_num) for char_to_num
    common.o(i.hexuintstr_to_num) refers to common.o(i.char_to_num) for char_to_num
    config.o(i.Config_Backup) refers to config.o(i.Config_Write) for Config_Write
    config.o(i.Config_Backup) refers to timer.o(i.Get_SysmilliTick) for Get_SysmilliTick
    config.o(i.Config_Backup) refers to config.o(.bss) for config_info
    config.o(i.Config_Backup) refers to config.o(.data) for backupms
    config.o(i.Config_Change_Event) refers to config.o(.data) for config_ischange
    config.o(i.Config_Init) refers to config.o(i.Config_Read) for Config_Read
    config.o(i.Config_Init) refers to config.o(i.Config_Backup) for Config_Backup
    config.o(i.Config_Init) refers to config.o(i._checkApp) for _checkApp
    config.o(i.Config_Init) refers to config.o(.bss) for config_info
    config.o(i.Config_Loop) refers to timer.o(i.Get_SysTick) for Get_SysTick
    config.o(i.Config_Loop) refers to config.o(i.Config_Backup) for Config_Backup
    config.o(i.Config_Loop) refers to config.o(.data) for bak_sec_tick
    config.o(i.Config_Read) refers to chip_flash.o(i.chip_read_flash) for chip_read_flash
    config.o(i.Config_Read_ServerInfo) refers to config.o(.bss) for config_info
    config.o(i.Config_Read_Zone) refers to config.o(.bss) for config_info
    config.o(i.Config_Write) refers to config.o(i.Config_Read) for Config_Read
    config.o(i.Config_Write) refers to memcmp.o(.text) for memcmp
    config.o(i.Config_Write) refers to chip_flash.o(i.chip_write_flash) for chip_write_flash
    config.o(i.Config_Write) refers to config.o(.bss) for config_compare
    config.o(i.Config_Write) refers to config.o(.data) for config_ischange
    config.o(i.Config_Write_Device_IMEI) refers to public.o(i.isBCDencodeing) for isBCDencodeing
    config.o(i.Config_Write_Device_IMEI) refers to config.o(i.Config_Change_Event) for Config_Change_Event
    config.o(i.Config_Write_Device_IMEI) refers to config.o(.bss) for config_info
    config.o(i.Config_Write_ServerInfo) refers to memcmp.o(.text) for memcmp
    config.o(i.Config_Write_ServerInfo) refers to config.o(i.Config_Change_Event) for Config_Change_Event
    config.o(i.Config_Write_ServerInfo) refers to config.o(.bss) for config_info
    config.o(i.Config_Write_Zone) refers to config.o(i.Config_Change_Event) for Config_Change_Event
    config.o(i.Config_Write_Zone) refers to config.o(.bss) for config_info
    oscrc32.o(i.u4_oscrc32) refers to oscrc32.o(.constdata) for crc32Tab
    public.o(i.CalculateBlockCRC32) refers to public.o(i.CRC32Value) for CRC32Value
    public.o(i.DEC2HEX) refers to lludivv7m.o(.text) for __aeabi_uldivmod
    public.o(i.DEC2HEX) refers to public.o(i.NMEA_Pow) for NMEA_Pow
    public.o(i.GetBuffer) refers to public.o(.bss) for PublicSendBuffer
    public.o(i.HEX2DEC) refers to lludivv7m.o(.text) for __aeabi_uldivmod
    public.o(i.HEX2DEC) refers to public.o(i.NMEA_Pow) for NMEA_Pow
    public.o(i.NMEA_Str2num) refers to public.o(i.NMEA_Pow) for NMEA_Pow
    public.o(i.Pipe1_Remove) refers to rt_memmove_v6.o(.text) for __aeabi_memmove
    public.o(i.Pipe1_Reset) refers to rt_memclr.o(.text) for __aeabi_memclr
    public.o(i.Pipe_Block_Input) refers to rt_memcpy_v6.o(.text) for __aeabi_memcpy
    public.o(i.Pipe_Block_Input) refers to timer.o(i.Get_SysmilliTick) for Get_SysmilliTick
    public.o(i.Pipe_Remove) refers to rt_memmove_v6.o(.text) for __aeabi_memmove
    public.o(i._ptxBuffer) refers to public.o(.bss) for _txBuffer
    public.o(i.isBCDencodeing) refers to lludivv7m.o(.text) for __aeabi_uldivmod
    stm32f10x_it.o(i.HardFault_Handler) refers to public.o(i.SoftReset) for SoftReset
    system_stm32f10x.o(i.SetSysClock) refers to system_stm32f10x.o(i.SetSysClockTo72) for SetSysClockTo72
    system_stm32f10x.o(i.SystemCoreClockUpdate) refers to system_stm32f10x.o(.data) for SystemCoreClock
    system_stm32f10x.o(i.SystemInit) refers to system_stm32f10x.o(i.SetSysClock) for SetSysClock
    user_m5310.o(i.Get_AT_Step) refers to user_m5310.o(.data) for nbiot_at_step
    user_m5310.o(i.Get_login_success_flag) refers to user_m5310.o(.data) for nbiot_login_onenet_flag
    user_m5310.o(i.NBIOT_AT_loop) refers to timer.o(i.Get_SysmilliTick) for Get_SysmilliTick
    user_m5310.o(i.NBIOT_AT_loop) refers to user_m5310.o(i.NBIOT_Pipe_Reset) for NBIOT_Pipe_Reset
    user_m5310.o(i.NBIOT_AT_loop) refers to usart.o(i.uart2_printf) for uart2_printf
    user_m5310.o(i.NBIOT_AT_loop) refers to usart.o(i.uart1_printf) for uart1_printf
    user_m5310.o(i.NBIOT_AT_loop) refers to public.o(i.Pipe1_Reset) for Pipe1_Reset
    user_m5310.o(i.NBIOT_AT_loop) refers to user_m5310.o(.data) for bak_millisec_tick
    user_m5310.o(i.NBIOT_AT_loop) refers to user_m5310.o(.conststring) for .conststring
    user_m5310.o(i.NBIOT_Pipe_Reset) refers to public.o(i.Pipe1_Reset) for Pipe1_Reset
    user_m5310.o(i.NBIOT_Pipe_Reset) refers to user_m5310.o(.data) for nbiot_recv_pipe
    user_m5310.o(i.NBIOT_Report_Data) refers to _printf_percent.o(.ARM.Collect$$_printf_percent$$00000000) for _printf_percent
    user_m5310.o(i.NBIOT_Report_Data) refers to _printf_d.o(.ARM.Collect$$_printf_percent$$00000009) for _printf_d
    user_m5310.o(i.NBIOT_Report_Data) refers to _printf_s.o(.ARM.Collect$$_printf_percent$$00000014) for _printf_s
    user_m5310.o(i.NBIOT_Report_Data) refers to _printf_dec.o(.text) for _printf_int_dec
    user_m5310.o(i.NBIOT_Report_Data) refers to _printf_str.o(.text) for _printf_str
    user_m5310.o(i.NBIOT_Report_Data) refers to strlen.o(.text) for strlen
    user_m5310.o(i.NBIOT_Report_Data) refers to rt_memclr_w.o(.text) for __aeabi_memclr4
    user_m5310.o(i.NBIOT_Report_Data) refers to __2sprintf.o(.text) for __2sprintf
    user_m5310.o(i.NBIOT_Report_Data) refers to usart.o(i.uart2_output) for uart2_output
    user_m5310.o(i.NBIOT_Report_Data) refers to user_m5310.o(.data) for nbiot_login_onenet_flag
    user_m5310.o(i.NBIOT_Status_Reset) refers to user_m5310.o(.data) for nbiot_run_timespan
    user_m5310.o(i.NBIOT_init) refers to usart.o(i.uart_init) for uart_init
    user_m5310.o(i.NBIOT_init) refers to nbiot_power.o(i.nbiot_power_init) for nbiot_power_init
    user_m5310.o(i.NBIOT_init) refers to user_m5310.o(i.NBIOT_power_reset) for NBIOT_power_reset
    user_m5310.o(i.NBIOT_init) refers to user_m5310.o(i.NBIOT_Pipe_Reset) for NBIOT_Pipe_Reset
    user_m5310.o(i.NBIOT_init) refers to usart.o(.data) for uart_pipe2
    user_m5310.o(i.NBIOT_init) refers to user_m5310.o(.data) for nbiot_recv_pipe
    user_m5310.o(i.NBIOT_loop) refers to timer.o(i.Get_SysTick) for Get_SysTick
    user_m5310.o(i.NBIOT_loop) refers to nbiot_power.o(i.nbiot_power_loop) for nbiot_power_loop
    user_m5310.o(i.NBIOT_loop) refers to usart.o(i.uart1_printf) for uart1_printf
    user_m5310.o(i.NBIOT_loop) refers to public.o(i.Pipe1_Reset) for Pipe1_Reset
    user_m5310.o(i.NBIOT_loop) refers to user_m5310.o(.data) for timersec
    user_m5310.o(i.NBIOT_parse_AT_loop) refers to common.o(i.my_memmem) for my_memmem
    user_m5310.o(i.NBIOT_parse_AT_loop) refers to user_m5310.o(i.Nbiot_AT_Reset) for Nbiot_AT_Reset
    user_m5310.o(i.NBIOT_parse_AT_loop) refers to user_m5310.o(i.Nbiot_AT_Test) for Nbiot_AT_Test
    user_m5310.o(i.NBIOT_parse_AT_loop) refers to user_m5310.o(i.Nbiot_AT_CGSN) for Nbiot_AT_CGSN
    user_m5310.o(i.NBIOT_parse_AT_loop) refers to user_m5310.o(i.Nbiot_AT_CIMI) for Nbiot_AT_CIMI
    user_m5310.o(i.NBIOT_parse_AT_loop) refers to user_m5310.o(i.Nbiot_AT_CSQ) for Nbiot_AT_CSQ
    user_m5310.o(i.NBIOT_parse_AT_loop) refers to user_m5310.o(i.Nbiot_AT_CGREG) for Nbiot_AT_CGREG
    user_m5310.o(i.NBIOT_parse_AT_loop) refers to user_m5310.o(i.Nbiot_AT_CGATT) for Nbiot_AT_CGATT
    user_m5310.o(i.NBIOT_parse_AT_loop) refers to user_m5310.o(i.Nbiot_AT_MIPLCREATE) for Nbiot_AT_MIPLCREATE
    user_m5310.o(i.NBIOT_parse_AT_loop) refers to user_m5310.o(i.Nbiot_AT_MIPLADDOBJ) for Nbiot_AT_MIPLADDOBJ
    user_m5310.o(i.NBIOT_parse_AT_loop) refers to user_m5310.o(i.Nbiot_AT_MIPLNOTIFY) for Nbiot_AT_MIPLNOTIFY
    user_m5310.o(i.NBIOT_parse_AT_loop) refers to user_m5310.o(i.Nbiot_AT_MIPLOPEN) for Nbiot_AT_MIPLOPEN
    user_m5310.o(i.NBIOT_parse_AT_loop) refers to user_m5310.o(i.Nbiot_AT_MIPLCLOSE) for Nbiot_AT_MIPLCLOSE
    user_m5310.o(i.NBIOT_parse_AT_loop) refers to user_m5310.o(i.Nbiot_AT_MIPLDELOBJ) for Nbiot_AT_MIPLDELOBJ
    user_m5310.o(i.NBIOT_parse_AT_loop) refers to user_m5310.o(i.Nbiot_AT_MIPLDEL) for Nbiot_AT_MIPLDEL
    user_m5310.o(i.NBIOT_parse_AT_loop) refers to public.o(i.Pipe1_Remove) for Pipe1_Remove
    user_m5310.o(i.NBIOT_parse_AT_loop) refers to user_m5310.o(.data) for nbiot_recv_pipe
    user_m5310.o(i.NBIOT_power_reset) refers to user_m5310.o(i.NBIOT_Status_Reset) for NBIOT_Status_Reset
    user_m5310.o(i.NBIOT_power_reset) refers to nbiot_power.o(i.nbiot_power_reset) for nbiot_power_reset
    user_m5310.o(i.NBIOT_task) refers to user_m5310.o(i.NBIOT_loop) for NBIOT_loop
    user_m5310.o(i.NBIOT_task) refers to user_m5310.o(i.NBIOT_parse_AT_loop) for NBIOT_parse_AT_loop
    user_m5310.o(i.NBIOT_task) refers to user_m5310.o(i.NBIOT_AT_loop) for NBIOT_AT_loop
    user_m5310.o(i.NBIOT_task) refers to user_m5310.o(i.NBIOT_updata_loop) for NBIOT_updata_loop
    user_m5310.o(i.NBIOT_task) refers to m5310_hard.o(i.NBIOT_normal_output) for NBIOT_normal_output
    user_m5310.o(i.NBIOT_task) refers to user_m5310.o(.data) for nbiot_at_step
    user_m5310.o(i.NBIOT_updata_loop) refers to timer.o(i.Get_SysTick) for Get_SysTick
    user_m5310.o(i.NBIOT_updata_loop) refers to user_m5310.o(i.NBIOT_Report_Data) for NBIOT_Report_Data
    user_m5310.o(i.NBIOT_updata_loop) refers to public.o(i.Pipe1_Reset) for Pipe1_Reset
    user_m5310.o(i.NBIOT_updata_loop) refers to user_m5310.o(.data) for timersec
    user_m5310.o(i.Nbiot_AT_CGATT) refers to common.o(i.my_memmem) for my_memmem
    user_m5310.o(i.Nbiot_AT_CGATT) refers to user_m5310.o(i.NBIOT_init) for NBIOT_init
    user_m5310.o(i.Nbiot_AT_CGATT) refers to user_m5310.o(.data) for nbiot_recv_pipe
    user_m5310.o(i.Nbiot_AT_CGREG) refers to common.o(i.my_memmem) for my_memmem
    user_m5310.o(i.Nbiot_AT_CGREG) refers to public.o(i.NMEA_Str2num) for NMEA_Str2num
    user_m5310.o(i.Nbiot_AT_CGREG) refers to user_m5310.o(i.NBIOT_init) for NBIOT_init
    user_m5310.o(i.Nbiot_AT_CGREG) refers to user_m5310.o(.data) for nbiot_recv_pipe
    user_m5310.o(i.Nbiot_AT_CGSN) refers to common.o(i.my_memmem) for my_memmem
    user_m5310.o(i.Nbiot_AT_CGSN) refers to rt_memclr.o(.text) for __aeabi_memclr
    user_m5310.o(i.Nbiot_AT_CGSN) refers to rt_memcpy_v6.o(.text) for __aeabi_memcpy
    user_m5310.o(i.Nbiot_AT_CGSN) refers to user_m5310.o(.data) for nbiot_recv_pipe
    user_m5310.o(i.Nbiot_AT_CGSN) refers to user_m5310.o(.bss) for nbiotIMEIstring
    user_m5310.o(i.Nbiot_AT_CIMI) refers to common.o(i.my_memmem) for my_memmem
    user_m5310.o(i.Nbiot_AT_CIMI) refers to rt_memclr.o(.text) for __aeabi_memclr
    user_m5310.o(i.Nbiot_AT_CIMI) refers to rt_memcpy_v6.o(.text) for __aeabi_memcpy
    user_m5310.o(i.Nbiot_AT_CIMI) refers to user_m5310.o(.data) for nbiot_recv_pipe
    user_m5310.o(i.Nbiot_AT_CIMI) refers to user_m5310.o(.bss) for simiccidstring
    user_m5310.o(i.Nbiot_AT_CSQ) refers to common.o(i.my_memmem) for my_memmem
    user_m5310.o(i.Nbiot_AT_CSQ) refers to public.o(i.NMEA_Str2num) for NMEA_Str2num
    user_m5310.o(i.Nbiot_AT_CSQ) refers to user_m5310.o(i.NBIOT_init) for NBIOT_init
    user_m5310.o(i.Nbiot_AT_CSQ) refers to user_m5310.o(.data) for nbiot_recv_pipe
    user_m5310.o(i.Nbiot_AT_MIPLADDOBJ) refers to common.o(i.my_memmem) for my_memmem
    user_m5310.o(i.Nbiot_AT_MIPLADDOBJ) refers to user_m5310.o(.data) for nbiot_recv_pipe
    user_m5310.o(i.Nbiot_AT_MIPLCLOSE) refers to common.o(i.my_memmem) for my_memmem
    user_m5310.o(i.Nbiot_AT_MIPLCLOSE) refers to user_m5310.o(.data) for nbiot_recv_pipe
    user_m5310.o(i.Nbiot_AT_MIPLCREATE) refers to common.o(i.my_memmem) for my_memmem
    user_m5310.o(i.Nbiot_AT_MIPLCREATE) refers to user_m5310.o(i.NBIOT_init) for NBIOT_init
    user_m5310.o(i.Nbiot_AT_MIPLCREATE) refers to user_m5310.o(.data) for nbiot_recv_pipe
    user_m5310.o(i.Nbiot_AT_MIPLDEL) refers to common.o(i.my_memmem) for my_memmem
    user_m5310.o(i.Nbiot_AT_MIPLDEL) refers to user_m5310.o(.data) for nbiot_recv_pipe
    user_m5310.o(i.Nbiot_AT_MIPLDELOBJ) refers to common.o(i.my_memmem) for my_memmem
    user_m5310.o(i.Nbiot_AT_MIPLDELOBJ) refers to user_m5310.o(.data) for nbiot_recv_pipe
    user_m5310.o(i.Nbiot_AT_MIPLNOTIFY) refers to common.o(i.my_memmem) for my_memmem
    user_m5310.o(i.Nbiot_AT_MIPLNOTIFY) refers to user_m5310.o(.data) for nbiot_recv_pipe
    user_m5310.o(i.Nbiot_AT_MIPLOPEN) refers to common.o(i.my_memmem) for my_memmem
    user_m5310.o(i.Nbiot_AT_MIPLOPEN) refers to user_m5310.o(i.NBIOT_init) for NBIOT_init
    user_m5310.o(i.Nbiot_AT_MIPLOPEN) refers to user_m5310.o(.data) for nbiot_recv_pipe
    user_m5310.o(i.Nbiot_AT_Test) refers to common.o(i.my_memmem) for my_memmem
    user_m5310.o(i.Nbiot_AT_Test) refers to user_m5310.o(i.NBIOT_init) for NBIOT_init
    user_m5310.o(i.Nbiot_AT_Test) refers to user_m5310.o(.data) for nbiot_recv_pipe
    m5310_onenet.o(i.get_command_len) refers to m5310_onenet.o(.data) for command_length
    m5310_onenet.o(i.init_miplconf) refers to strlen.o(.text) for strlen
    m5310_onenet.o(i.init_miplconf) refers to m5310_onenet.o(i.mipl_generate) for mipl_generate
    m5310_onenet.o(i.init_miplconf) refers to strcpy.o(.text) for strcpy
    m5310_onenet.o(i.init_miplconf) refers to m5310_onenet.o(.bss) for reg_buff
    m5310_onenet.o(i.mipl_generate) refers to rt_memclr.o(.text) for __aeabi_memclr
    m5310_onenet.o(i.mipl_generate) refers to rt_memcpy_v6.o(.text) for __aeabi_memcpy
    m5310_onenet.o(i.mipl_generate) refers to strcpy.o(.text) for strcpy
    m5310_onenet.o(i.mipl_generate) refers to m5310_onenet.o(i.nbiot_itoa) for nbiot_itoa
    m5310_onenet.o(i.mipl_generate) refers to strcat.o(.text) for strcat
    m5310_onenet.o(i.mipl_generate) refers to strlen.o(.text) for strlen
    m5310_onenet.o(i.mipl_generate) refers to m5310_onenet.o(i.hex_to_hexstring) for hex_to_hexstring
    m5310_onenet.o(i.mipl_generate) refers to m5310_onenet.o(.bss) for cmd_buff
    m5310_onenet.o(i.mipl_generate) refers to m5310_onenet.o(.data) for command_length
    m5310_onenet.o(i.nbiot_itoa) refers to m5310_onenet.o(i.nbiot_strncpy) for nbiot_strncpy
    vsprintf.o(.text) refers (Special) to _printf_a.o(.ARM.Collect$$_printf_percent$$00000006) for _printf_a
    vsprintf.o(.text) refers (Special) to _printf_c.o(.ARM.Collect$$_printf_percent$$00000013) for _printf_c
    vsprintf.o(.text) refers (Special) to _printf_charcount.o(.text) for _printf_charcount
    vsprintf.o(.text) refers (Special) to _printf_d.o(.ARM.Collect$$_printf_percent$$00000009) for _printf_d
    vsprintf.o(.text) refers (Special) to _printf_e.o(.ARM.Collect$$_printf_percent$$00000004) for _printf_e
    vsprintf.o(.text) refers (Special) to _printf_f.o(.ARM.Collect$$_printf_percent$$00000003) for _printf_f
    vsprintf.o(.text) refers (Special) to printf1.o(x$fpl$printf1) for _printf_fp_dec
    vsprintf.o(.text) refers (Special) to printf2.o(x$fpl$printf2) for _printf_fp_hex
    vsprintf.o(.text) refers (Special) to _printf_g.o(.ARM.Collect$$_printf_percent$$00000005) for _printf_g
    vsprintf.o(.text) refers (Special) to _printf_i.o(.ARM.Collect$$_printf_percent$$00000008) for _printf_i
    vsprintf.o(.text) refers (Special) to _printf_dec.o(.text) for _printf_int_dec
    vsprintf.o(.text) refers (Special) to _printf_l.o(.ARM.Collect$$_printf_percent$$00000012) for _printf_l
    vsprintf.o(.text) refers (Special) to _printf_lc.o(.ARM.Collect$$_printf_percent$$00000015) for _printf_lc
    vsprintf.o(.text) refers (Special) to _printf_ll.o(.ARM.Collect$$_printf_percent$$00000007) for _printf_ll
    vsprintf.o(.text) refers (Special) to _printf_lld.o(.ARM.Collect$$_printf_percent$$0000000E) for _printf_lld
    vsprintf.o(.text) refers (Special) to _printf_lli.o(.ARM.Collect$$_printf_percent$$0000000D) for _printf_lli
    vsprintf.o(.text) refers (Special) to _printf_llo.o(.ARM.Collect$$_printf_percent$$00000010) for _printf_llo
    vsprintf.o(.text) refers (Special) to _printf_llu.o(.ARM.Collect$$_printf_percent$$0000000F) for _printf_llu
    vsprintf.o(.text) refers (Special) to _printf_llx.o(.ARM.Collect$$_printf_percent$$00000011) for _printf_llx
    vsprintf.o(.text) refers (Special) to _printf_longlong_dec.o(.text) for _printf_longlong_dec
    vsprintf.o(.text) refers (Special) to _printf_hex_int_ll_ptr.o(.text) for _printf_longlong_hex
    vsprintf.o(.text) refers (Special) to _printf_oct_int_ll.o(.text) for _printf_longlong_oct
    vsprintf.o(.text) refers (Special) to _printf_ls.o(.ARM.Collect$$_printf_percent$$00000016) for _printf_ls
    vsprintf.o(.text) refers (Special) to _printf_n.o(.ARM.Collect$$_printf_percent$$00000001) for _printf_n
    vsprintf.o(.text) refers (Special) to _printf_o.o(.ARM.Collect$$_printf_percent$$0000000B) for _printf_o
    vsprintf.o(.text) refers (Special) to _printf_p.o(.ARM.Collect$$_printf_percent$$00000002) for _printf_p
    vsprintf.o(.text) refers (Special) to _printf_percent.o(.ARM.Collect$$_printf_percent$$00000000) for _printf_percent
    vsprintf.o(.text) refers (Special) to _printf_pad.o(.text) for _printf_post_padding
    vsprintf.o(.text) refers (Special) to _printf_s.o(.ARM.Collect$$_printf_percent$$00000014) for _printf_s
    vsprintf.o(.text) refers (Special) to _printf_str.o(.text) for _printf_str
    vsprintf.o(.text) refers (Special) to _printf_truncate.o(.text) for _printf_truncate_signed
    vsprintf.o(.text) refers (Special) to _printf_u.o(.ARM.Collect$$_printf_percent$$0000000A) for _printf_u
    vsprintf.o(.text) refers (Special) to _printf_wctomb.o(.text) for _printf_wctomb
    vsprintf.o(.text) refers (Special) to _printf_x.o(.ARM.Collect$$_printf_percent$$0000000C) for _printf_x
    vsprintf.o(.text) refers to _printf_char_common.o(.text) for _printf_char_common
    vsprintf.o(.text) refers to _sputc.o(.text) for _sputc
    __2sprintf.o(.text) refers to _printf_char_common.o(.text) for _printf_char_common
    __2sprintf.o(.text) refers to _sputc.o(.text) for _sputc
    noretval__2sprintf.o(.text) refers to _printf_char_common.o(.text) for _printf_char_common
    noretval__2sprintf.o(.text) refers to _sputc.o(.text) for _sputc
    __printf.o(.text) refers to _printf_percent.o(.ARM.Collect$$_printf_percent$$00000000) for _printf_percent
    _printf_str.o(.text) refers (Special) to _printf_char.o(.text) for _printf_cs_common
    _printf_str.o(.text) refers (Weak) to _printf_pad.o(.text) for _printf_pre_padding
    _printf_str.o(.text) refers (Weak) to _printf_pad.o(.text) for _printf_post_padding
    _printf_dec.o(.text) refers (Weak) to _printf_truncate.o(.text) for _printf_truncate_signed
    _printf_dec.o(.text) refers (Weak) to _printf_truncate.o(.text) for _printf_truncate_unsigned
    _printf_dec.o(.text) refers to _printf_intcommon.o(.text) for _printf_int_common
    __printf_flags.o(.text) refers to _printf_percent.o(.ARM.Collect$$_printf_percent$$00000000) for _printf_percent
    __printf_flags.o(.text) refers to __printf_flags.o(.constdata) for .constdata
    __printf_ss.o(.text) refers to _printf_percent.o(.ARM.Collect$$_printf_percent$$00000000) for _printf_percent
    __printf_flags_ss.o(.text) refers to _printf_percent.o(.ARM.Collect$$_printf_percent$$00000000) for _printf_percent
    __printf_flags_ss.o(.text) refers to __printf_flags_ss.o(.constdata) for .constdata
    __printf_wp.o(.text) refers to __printf_wp.o(i._is_digit) for _is_digit
    __printf_wp.o(.text) refers to _printf_percent.o(.ARM.Collect$$_printf_percent$$00000000) for _printf_percent
    __printf_flags_wp.o(.text) refers to __printf_wp.o(i._is_digit) for _is_digit
    __printf_flags_wp.o(.text) refers to _printf_percent.o(.ARM.Collect$$_printf_percent$$00000000) for _printf_percent
    __printf_flags_wp.o(.text) refers to __printf_flags_wp.o(.constdata) for .constdata
    __printf_ss_wp.o(.text) refers to __printf_wp.o(i._is_digit) for _is_digit
    __printf_ss_wp.o(.text) refers to _printf_percent.o(.ARM.Collect$$_printf_percent$$00000000) for _printf_percent
    __printf_flags_ss_wp.o(.text) refers to __printf_wp.o(i._is_digit) for _is_digit
    __printf_flags_ss_wp.o(.text) refers to _printf_percent.o(.ARM.Collect$$_printf_percent$$00000000) for _printf_percent
    __printf_flags_ss_wp.o(.text) refers to __printf_flags_ss_wp.o(.constdata) for .constdata
    _printf_s.o(.ARM.Collect$$_printf_percent$$00000014) refers (Weak) to _printf_char.o(.text) for _printf_string
    _printf_d.o(.ARM.Collect$$_printf_percent$$00000009) refers (Weak) to _printf_dec.o(.text) for _printf_int_dec
    _printf_percent.o(.ARM.Collect$$_printf_percent$$00000000) refers (Special) to _printf_percent_end.o(.ARM.Collect$$_printf_percent$$00000017) for _printf_percent_end
    rt_memcpy_v6.o(.text) refers to rt_memcpy_w.o(.text) for __aeabi_memcpy4
    rt_memmove_v6.o(.text) refers to rt_memcpy_v6.o(.text) for __aeabi_memcpy
    rt_memmove_v6.o(.text) refers to rt_memmove_w.o(.text) for __memmove_aligned
    aeabi_memset.o(.text) refers to rt_memclr.o(.text) for _memset
    rt_memclr.o(.text) refers to rt_memclr_w.o(.text) for _memset_w
    __main.o(!!!main) refers to __rtentry.o(.ARM.Collect$$rtentry$$00000000) for __rt_entry
    d2f.o(x$fpl$d2f) refers (Special) to usenofp.o(x$fpl$usenofp) for __I$use$fp
    d2f.o(x$fpl$d2f) refers to fretinf.o(x$fpl$fretinf) for __fpl_fretinf
    d2f.o(x$fpl$d2f) refers to dnaninf.o(x$fpl$dnaninf) for __fpl_dnaninf
    daddsub_clz.o(x$fpl$dadd) refers (Special) to usenofp.o(x$fpl$usenofp) for __I$use$fp
    daddsub_clz.o(x$fpl$dadd) refers to daddsub_clz.o(x$fpl$dsub) for _dsub1
    daddsub_clz.o(x$fpl$dadd) refers to dretinf.o(x$fpl$dretinf) for __fpl_dretinf
    daddsub_clz.o(x$fpl$dadd) refers to dnaninf.o(x$fpl$dnaninf) for __fpl_dnaninf
    daddsub_clz.o(x$fpl$drsb) refers (Special) to usenofp.o(x$fpl$usenofp) for __I$use$fp
    daddsub_clz.o(x$fpl$drsb) refers to daddsub_clz.o(x$fpl$dadd) for _dadd1
    daddsub_clz.o(x$fpl$drsb) refers to daddsub_clz.o(x$fpl$dsub) for _dsub1
    daddsub_clz.o(x$fpl$dsub) refers (Special) to usenofp.o(x$fpl$usenofp) for __I$use$fp
    daddsub_clz.o(x$fpl$dsub) refers to daddsub_clz.o(x$fpl$dadd) for _dadd1
    daddsub_clz.o(x$fpl$dsub) refers to dnaninf.o(x$fpl$dnaninf) for __fpl_dnaninf
    ddiv.o(x$fpl$drdiv) refers (Special) to usenofp.o(x$fpl$usenofp) for __I$use$fp
    ddiv.o(x$fpl$drdiv) refers to ddiv.o(x$fpl$ddiv) for ddiv_entry
    ddiv.o(x$fpl$ddiv) refers (Special) to usenofp.o(x$fpl$usenofp) for __I$use$fp
    ddiv.o(x$fpl$ddiv) refers to dretinf.o(x$fpl$dretinf) for __fpl_dretinf
    ddiv.o(x$fpl$ddiv) refers to dnaninf.o(x$fpl$dnaninf) for __fpl_dnaninf
    dflt_clz.o(x$fpl$dfltu) refers (Special) to usenofp.o(x$fpl$usenofp) for __I$use$fp
    dflt_clz.o(x$fpl$dflt) refers (Special) to usenofp.o(x$fpl$usenofp) for __I$use$fp
    dflt_clz.o(x$fpl$dfltn) refers (Special) to usenofp.o(x$fpl$usenofp) for __I$use$fp
    dmul.o(x$fpl$dmul) refers (Special) to usenofp.o(x$fpl$usenofp) for __I$use$fp
    dmul.o(x$fpl$dmul) refers to dretinf.o(x$fpl$dretinf) for __fpl_dretinf
    dmul.o(x$fpl$dmul) refers to dnaninf.o(x$fpl$dnaninf) for __fpl_dnaninf
    f2d.o(x$fpl$f2d) refers (Special) to usenofp.o(x$fpl$usenofp) for __I$use$fp
    f2d.o(x$fpl$f2d) refers to fnaninf.o(x$fpl$fnaninf) for __fpl_fnaninf
    f2d.o(x$fpl$f2d) refers to dretinf.o(x$fpl$dretinf) for __fpl_dretinf
    fflt_clz.o(x$fpl$ffltu) refers (Special) to usenofp.o(x$fpl$usenofp) for __I$use$fp
    fflt_clz.o(x$fpl$fflt) refers (Special) to usenofp.o(x$fpl$usenofp) for __I$use$fp
    fflt_clz.o(x$fpl$ffltn) refers (Special) to usenofp.o(x$fpl$usenofp) for __I$use$fp
    __rtentry.o(.ARM.Collect$$rtentry$$00000000) refers (Special) to __rtentry2.o(.ARM.Collect$$rtentry$$0000000A) for __rt_entry_li
    __rtentry.o(.ARM.Collect$$rtentry$$00000000) refers (Special) to __rtentry2.o(.ARM.Collect$$rtentry$$0000000D) for __rt_entry_main
    __rtentry.o(.ARM.Collect$$rtentry$$00000000) refers (Special) to __rtentry2.o(.ARM.Collect$$rtentry$$0000000C) for __rt_entry_postli_1
    __rtentry.o(.ARM.Collect$$rtentry$$00000000) refers (Special) to __rtentry2.o(.ARM.Collect$$rtentry$$00000009) for __rt_entry_postsh_1
    __rtentry.o(.ARM.Collect$$rtentry$$00000000) refers (Special) to __rtentry2.o(.ARM.Collect$$rtentry$$00000002) for __rt_entry_presh_1
    __rtentry.o(.ARM.Collect$$rtentry$$00000000) refers (Special) to __rtentry4.o(.ARM.Collect$$rtentry$$00000004) for __rt_entry_sh
    aeabi_ldiv0_sigfpe.o(.text) refers to rt_div0.o(.text) for __rt_div0
    _printf_intcommon.o(.text) refers (Weak) to _printf_pad.o(.text) for _printf_pre_padding
    _printf_intcommon.o(.text) refers (Weak) to _printf_pad.o(.text) for _printf_pre_padding
    _printf_intcommon.o(.text) refers (Weak) to _printf_pad.o(.text) for _printf_post_padding
    _printf_char_common.o(.text) refers to __printf_flags_ss_wp.o(.text) for __printf
    _printf_char.o(.text) refers (Weak) to _printf_str.o(.text) for _printf_str
    _printf_wctomb.o(.text) refers (Special) to _printf_wchar.o(.text) for _printf_lcs_common
    _printf_wctomb.o(.text) refers to _wcrtomb.o(.text) for _wcrtomb
    _printf_wctomb.o(.text) refers (Weak) to _printf_pad.o(.text) for _printf_pre_padding
    _printf_wctomb.o(.text) refers (Weak) to _printf_pad.o(.text) for _printf_post_padding
    _printf_wctomb.o(.text) refers to _printf_wctomb.o(.constdata) for .constdata
    _printf_wctomb.o(.constdata) refers (Special) to _printf_wchar.o(.text) for _printf_lcs_common
    _printf_longlong_dec.o(.text) refers to lludiv10.o(.text) for _ll_udiv10
    _printf_longlong_dec.o(.text) refers to _printf_intcommon.o(.text) for _printf_int_common
    _printf_oct_ll.o(.text) refers to _printf_intcommon.o(.text) for _printf_int_common
    _printf_oct_int.o(.text) refers (Weak) to _printf_truncate.o(.text) for _printf_truncate_unsigned
    _printf_oct_int.o(.text) refers to _printf_intcommon.o(.text) for _printf_int_common
    _printf_oct_int_ll.o(.text) refers to _printf_intcommon.o(.text) for _printf_int_common
    _printf_oct_int_ll.o(.text) refers (Weak) to _printf_truncate.o(.text) for _printf_truncate_unsigned
    _printf_hex_ll.o(.text) refers to _printf_intcommon.o(.text) for _printf_int_common
    _printf_hex_ll.o(.text) refers to _printf_hex_ll.o(.constdata) for .constdata
    _printf_hex_int.o(.text) refers (Weak) to _printf_truncate.o(.text) for _printf_truncate_unsigned
    _printf_hex_int.o(.text) refers to _printf_intcommon.o(.text) for _printf_int_common
    _printf_hex_int.o(.text) refers to _printf_hex_int.o(.constdata) for .constdata
    _printf_hex_int_ll.o(.text) refers to _printf_intcommon.o(.text) for _printf_int_common
    _printf_hex_int_ll.o(.text) refers (Weak) to _printf_truncate.o(.text) for _printf_truncate_unsigned
    _printf_hex_int_ll.o(.text) refers to _printf_hex_int_ll.o(.constdata) for .constdata
    _printf_hex_ptr.o(.text) refers to _printf_intcommon.o(.text) for _printf_int_common
    _printf_hex_ptr.o(.text) refers to _printf_hex_ptr.o(.constdata) for .constdata
    _printf_hex_int_ptr.o(.text) refers to _printf_intcommon.o(.text) for _printf_int_common
    _printf_hex_int_ptr.o(.text) refers (Weak) to _printf_truncate.o(.text) for _printf_truncate_unsigned
    _printf_hex_int_ptr.o(.text) refers to _printf_hex_int_ptr.o(.constdata) for .constdata
    _printf_hex_ll_ptr.o(.text) refers to _printf_intcommon.o(.text) for _printf_int_common
    _printf_hex_ll_ptr.o(.text) refers to _printf_hex_ll_ptr.o(.constdata) for .constdata
    _printf_hex_int_ll_ptr.o(.text) refers to _printf_intcommon.o(.text) for _printf_int_common
    _printf_hex_int_ll_ptr.o(.text) refers (Weak) to _printf_truncate.o(.text) for _printf_truncate_unsigned
    _printf_hex_int_ll_ptr.o(.text) refers to _printf_hex_int_ll_ptr.o(.constdata) for .constdata
    _printf_c.o(.ARM.Collect$$_printf_percent$$00000013) refers (Weak) to _printf_char.o(.text) for _printf_char
    _printf_n.o(.ARM.Collect$$_printf_percent$$00000001) refers (Weak) to _printf_charcount.o(.text) for _printf_charcount
    _printf_x.o(.ARM.Collect$$_printf_percent$$0000000C) refers (Weak) to _printf_hex_int_ll_ptr.o(.text) for _printf_int_hex
    _printf_p.o(.ARM.Collect$$_printf_percent$$00000002) refers (Weak) to _printf_hex_int_ll_ptr.o(.text) for _printf_hex_ptr
    _printf_o.o(.ARM.Collect$$_printf_percent$$0000000B) refers (Weak) to _printf_oct_int_ll.o(.text) for _printf_int_oct
    _printf_i.o(.ARM.Collect$$_printf_percent$$00000008) refers (Weak) to _printf_dec.o(.text) for _printf_int_dec
    _printf_u.o(.ARM.Collect$$_printf_percent$$0000000A) refers (Weak) to _printf_dec.o(.text) for _printf_int_dec
    _printf_f.o(.ARM.Collect$$_printf_percent$$00000003) refers (Weak) to printf1.o(x$fpl$printf1) for _printf_fp_dec
    _printf_e.o(.ARM.Collect$$_printf_percent$$00000004) refers (Weak) to printf1.o(x$fpl$printf1) for _printf_fp_dec
    _printf_g.o(.ARM.Collect$$_printf_percent$$00000005) refers (Weak) to printf1.o(x$fpl$printf1) for _printf_fp_dec
    _printf_a.o(.ARM.Collect$$_printf_percent$$00000006) refers (Weak) to printf2.o(x$fpl$printf2) for _printf_fp_hex
    _printf_lli.o(.ARM.Collect$$_printf_percent$$0000000D) refers (Special) to _printf_ll.o(.ARM.Collect$$_printf_percent$$00000007) for _printf_ll
    _printf_lli.o(.ARM.Collect$$_printf_percent$$0000000D) refers (Weak) to _printf_longlong_dec.o(.text) for _printf_longlong_dec
    _printf_lld.o(.ARM.Collect$$_printf_percent$$0000000E) refers (Special) to _printf_ll.o(.ARM.Collect$$_printf_percent$$00000007) for _printf_ll
    _printf_lld.o(.ARM.Collect$$_printf_percent$$0000000E) refers (Weak) to _printf_longlong_dec.o(.text) for _printf_longlong_dec
    _printf_llu.o(.ARM.Collect$$_printf_percent$$0000000F) refers (Special) to _printf_ll.o(.ARM.Collect$$_printf_percent$$00000007) for _printf_ll
    _printf_llu.o(.ARM.Collect$$_printf_percent$$0000000F) refers (Weak) to _printf_longlong_dec.o(.text) for _printf_longlong_dec
    _printf_lc.o(.ARM.Collect$$_printf_percent$$00000015) refers (Special) to _printf_l.o(.ARM.Collect$$_printf_percent$$00000012) for _printf_l
    _printf_lc.o(.ARM.Collect$$_printf_percent$$00000015) refers (Weak) to _printf_wchar.o(.text) for _printf_wchar
    _printf_ls.o(.ARM.Collect$$_printf_percent$$00000016) refers (Special) to _printf_l.o(.ARM.Collect$$_printf_percent$$00000012) for _printf_l
    _printf_ls.o(.ARM.Collect$$_printf_percent$$00000016) refers (Weak) to _printf_wchar.o(.text) for _printf_wstring
    _printf_llo.o(.ARM.Collect$$_printf_percent$$00000010) refers (Special) to _printf_ll.o(.ARM.Collect$$_printf_percent$$00000007) for _printf_ll
    _printf_llo.o(.ARM.Collect$$_printf_percent$$00000010) refers (Weak) to _printf_oct_int_ll.o(.text) for _printf_ll_oct
    _printf_llx.o(.ARM.Collect$$_printf_percent$$00000011) refers (Special) to _printf_ll.o(.ARM.Collect$$_printf_percent$$00000007) for _printf_ll
    _printf_llx.o(.ARM.Collect$$_printf_percent$$00000011) refers (Weak) to _printf_hex_int_ll_ptr.o(.text) for _printf_ll_hex
    rt_memmove_w.o(.text) refers to rt_memcpy_w.o(.text) for __aeabi_memcpy4
    dnaninf.o(x$fpl$dnaninf) refers (Special) to usenofp.o(x$fpl$usenofp) for __I$use$fp
    dretinf.o(x$fpl$dretinf) refers (Special) to usenofp.o(x$fpl$usenofp) for __I$use$fp
    fnaninf.o(x$fpl$fnaninf) refers (Special) to usenofp.o(x$fpl$usenofp) for __I$use$fp
    fretinf.o(x$fpl$fretinf) refers (Special) to usenofp.o(x$fpl$usenofp) for __I$use$fp
    printf1.o(x$fpl$printf1) refers to _printf_fp_dec.o(.text) for _printf_fp_dec_real
    printf2.o(x$fpl$printf2) refers to _printf_fp_hex.o(.text) for _printf_fp_hex_real
    printf2b.o(x$fpl$printf2) refers to _printf_fp_hex.o(.text) for _printf_fp_hex_real
    __rtentry2.o(.ARM.Collect$$rtentry$$00000008) refers to boardinit2.o(.text) for _platform_post_stackheap_init
    __rtentry2.o(.ARM.Collect$$rtentry$$0000000A) refers to libinit.o(.ARM.Collect$$libinit$$00000000) for __rt_lib_init
    __rtentry2.o(.ARM.Collect$$rtentry$$0000000B) refers to boardinit3.o(.text) for _platform_post_lib_init
    __rtentry2.o(.ARM.Collect$$rtentry$$0000000D) refers to main.o(i.main) for main
    __rtentry2.o(.ARM.Collect$$rtentry$$0000000D) refers to exit.o(.text) for exit
    __rtentry2.o(.ARM.exidx) refers to __rtentry2.o(.ARM.Collect$$rtentry$$00000001) for .ARM.Collect$$rtentry$$00000001
    __rtentry2.o(.ARM.exidx) refers to __rtentry2.o(.ARM.Collect$$rtentry$$00000008) for .ARM.Collect$$rtentry$$00000008
    __rtentry2.o(.ARM.exidx) refers to __rtentry2.o(.ARM.Collect$$rtentry$$0000000A) for .ARM.Collect$$rtentry$$0000000A
    __rtentry2.o(.ARM.exidx) refers to __rtentry2.o(.ARM.Collect$$rtentry$$0000000B) for .ARM.Collect$$rtentry$$0000000B
    __rtentry2.o(.ARM.exidx) refers to __rtentry2.o(.ARM.Collect$$rtentry$$0000000D) for .ARM.Collect$$rtentry$$0000000D
    __rtentry4.o(.ARM.Collect$$rtentry$$00000004) refers to sys_stackheap_outer.o(.text) for __user_setup_stackheap
    __rtentry4.o(.ARM.exidx) refers to __rtentry4.o(.ARM.Collect$$rtentry$$00000004) for .ARM.Collect$$rtentry$$00000004
    rt_div0.o(.text) refers to defsig_fpe_outer.o(.text) for __rt_SIGFPE
    _printf_fp_dec.o(.text) refers (Special) to usenofp.o(x$fpl$usenofp) for __I$use$fp
    _printf_fp_dec.o(.text) refers (Special) to lc_numeric_c.o(locale$$code) for _get_lc_numeric
    _printf_fp_dec.o(.text) refers to bigflt0.o(.text) for _btod_etento
    _printf_fp_dec.o(.text) refers to btod.o(CL$$btod_d2e) for _btod_d2e
    _printf_fp_dec.o(.text) refers to btod.o(CL$$btod_ediv) for _btod_ediv
    _printf_fp_dec.o(.text) refers to btod.o(CL$$btod_emul) for _btod_emul
    _printf_fp_dec.o(.text) refers to lludiv10.o(.text) for _ll_udiv10
    _printf_fp_dec.o(.text) refers to fpclassify.o(i.__ARM_fpclassify) for __ARM_fpclassify
    _printf_fp_dec.o(.text) refers to _printf_fp_infnan.o(.text) for _printf_fp_infnan
    _printf_fp_dec.o(.text) refers (Weak) to _printf_pad.o(.text) for _printf_pre_padding
    _printf_fp_dec.o(.text) refers (Weak) to _printf_pad.o(.text) for _printf_pre_padding
    _printf_fp_dec.o(.text) refers to rt_locale_intlibspace.o(.text) for __rt_locale
    _printf_fp_dec.o(.text) refers (Weak) to _printf_pad.o(.text) for _printf_post_padding
    _printf_fp_hex.o(.text) refers (Special) to usenofp.o(x$fpl$usenofp) for __I$use$fp
    _printf_fp_hex.o(.text) refers to fpclassify.o(i.__ARM_fpclassify) for __ARM_fpclassify
    _printf_fp_hex.o(.text) refers to _printf_fp_infnan.o(.text) for _printf_fp_infnan
    _printf_fp_hex.o(.text) refers (Weak) to _printf_pad.o(.text) for _printf_pre_padding
    _printf_fp_hex.o(.text) refers (Weak) to _printf_pad.o(.text) for _printf_pre_padding
    _printf_fp_hex.o(.text) refers (Weak) to _printf_pad.o(.text) for _printf_post_padding
    _printf_fp_hex.o(.text) refers to _printf_fp_hex.o(.constdata) for .constdata
    _printf_fp_hex.o(.constdata) refers (Special) to usenofp.o(x$fpl$usenofp) for __I$use$fp
    _printf_wchar.o(.text) refers (Weak) to _printf_wctomb.o(.text) for _printf_wctomb
    _wcrtomb.o(.text) refers to rt_ctype_table.o(.text) for __rt_ctype_table
    sys_stackheap_outer.o(.text) refers to libspace.o(.text) for __user_perproc_libspace
    sys_stackheap_outer.o(.text) refers to startup_stm32f10x_hd.o(.text) for __user_initial_stackheap
    rt_ctype_table.o(.text) refers to rt_locale_intlibspace.o(.text) for __rt_locale
    rt_ctype_table.o(.text) refers to lc_ctype_c.o(locale$$code) for _get_lc_ctype
    rt_locale.o(.text) refers to rt_locale.o(.bss) for __rt_locale_data
    rt_locale_intlibspace.o(.text) refers to libspace.o(.bss) for __libspace_start
    _printf_fp_infnan.o(.text) refers (Weak) to _printf_pad.o(.text) for _printf_pre_padding
    _printf_fp_infnan.o(.text) refers (Weak) to _printf_pad.o(.text) for _printf_post_padding
    bigflt0.o(.text) refers (Special) to usenofp.o(x$fpl$usenofp) for __I$use$fp
    bigflt0.o(.text) refers to btod.o(CL$$btod_emul) for _btod_emul
    bigflt0.o(.text) refers to btod.o(CL$$btod_ediv) for _btod_ediv
    bigflt0.o(.text) refers to bigflt0.o(.constdata) for .constdata
    bigflt0.o(.constdata) refers (Special) to usenofp.o(x$fpl$usenofp) for __I$use$fp
    btod.o(CL$$btod_d2e) refers (Special) to usenofp.o(x$fpl$usenofp) for __I$use$fp
    btod.o(CL$$btod_d2e) refers to btod.o(CL$$btod_d2e_norm_op1) for _d2e_norm_op1
    btod.o(CL$$btod_d2e_norm_op1) refers (Special) to usenofp.o(x$fpl$usenofp) for __I$use$fp
    btod.o(CL$$btod_d2e_norm_op1) refers to btod.o(CL$$btod_d2e_denorm_low) for _d2e_denorm_low
    btod.o(CL$$btod_d2e_denorm_low) refers (Special) to usenofp.o(x$fpl$usenofp) for __I$use$fp
    btod.o(CL$$btod_emul) refers (Special) to usenofp.o(x$fpl$usenofp) for __I$use$fp
    btod.o(CL$$btod_emul) refers to btod.o(CL$$btod_mult_common) for __btod_mult_common
    btod.o(CL$$btod_emul) refers to btod.o(CL$$btod_e2e) for _e2e
    btod.o(CL$$btod_ediv) refers (Special) to usenofp.o(x$fpl$usenofp) for __I$use$fp
    btod.o(CL$$btod_ediv) refers to btod.o(CL$$btod_div_common) for __btod_div_common
    btod.o(CL$$btod_ediv) refers to btod.o(CL$$btod_e2e) for _e2e
    btod.o(CL$$btod_emuld) refers (Special) to usenofp.o(x$fpl$usenofp) for __I$use$fp
    btod.o(CL$$btod_emuld) refers to btod.o(CL$$btod_mult_common) for __btod_mult_common
    btod.o(CL$$btod_emuld) refers to btod.o(CL$$btod_e2d) for _e2d
    btod.o(CL$$btod_edivd) refers (Special) to usenofp.o(x$fpl$usenofp) for __I$use$fp
    btod.o(CL$$btod_edivd) refers to btod.o(CL$$btod_div_common) for __btod_div_common
    btod.o(CL$$btod_edivd) refers to btod.o(CL$$btod_e2d) for _e2d
    btod.o(CL$$btod_e2e) refers (Special) to usenofp.o(x$fpl$usenofp) for __I$use$fp
    btod.o(CL$$btod_e2d) refers (Special) to usenofp.o(x$fpl$usenofp) for __I$use$fp
    btod.o(CL$$btod_e2d) refers to btod.o(CL$$btod_e2e) for _e2e
    btod.o(CL$$btod_mult_common) refers (Special) to usenofp.o(x$fpl$usenofp) for __I$use$fp
    btod.o(CL$$btod_div_common) refers (Special) to usenofp.o(x$fpl$usenofp) for __I$use$fp
    lc_numeric_c.o(locale$$data) refers (Special) to libinit2.o(.ARM.Collect$$libinit$$00000016) for __rt_lib_init_lc_numeric_2
    lc_numeric_c.o(locale$$code) refers (Special) to libinit2.o(.ARM.Collect$$libinit$$00000016) for __rt_lib_init_lc_numeric_2
    lc_numeric_c.o(locale$$code) refers to strcmpv7m.o(.text) for strcmp
    lc_numeric_c.o(locale$$code) refers to lc_numeric_c.o(locale$$data) for __lcnum_c_name
    exit.o(.text) refers to rtexit.o(.ARM.Collect$$rtexit$$00000000) for __rt_exit
    defsig_fpe_outer.o(.text) refers to defsig_fpe_inner.o(.text) for __rt_SIGFPE_inner
    defsig_fpe_outer.o(.text) refers to defsig_exit.o(.text) for __sig_exit
    defsig_fpe_formal.o(.text) refers to rt_raise.o(.text) for __rt_raise
    libinit.o(.ARM.Collect$$libinit$$00000000) refers (Special) to libinit2.o(.ARM.Collect$$libinit$$0000002E) for __rt_lib_init_alloca_1
    libinit.o(.ARM.Collect$$libinit$$00000000) refers (Special) to libinit2.o(.ARM.Collect$$libinit$$0000002C) for __rt_lib_init_argv_1
    libinit.o(.ARM.Collect$$libinit$$00000000) refers (Special) to libinit2.o(.ARM.Collect$$libinit$$0000001B) for __rt_lib_init_atexit_1
    libinit.o(.ARM.Collect$$libinit$$00000000) refers (Special) to libinit2.o(.ARM.Collect$$libinit$$00000021) for __rt_lib_init_clock_1
    libinit.o(.ARM.Collect$$libinit$$00000000) refers (Special) to libinit2.o(.ARM.Collect$$libinit$$00000032) for __rt_lib_init_cpp_1
    libinit.o(.ARM.Collect$$libinit$$00000000) refers (Special) to libinit2.o(.ARM.Collect$$libinit$$00000030) for __rt_lib_init_exceptions_1
    libinit.o(.ARM.Collect$$libinit$$00000000) refers (Special) to libinit2.o(.ARM.Collect$$libinit$$00000002) for __rt_lib_init_fp_1
    libinit.o(.ARM.Collect$$libinit$$00000000) refers (Special) to libinit2.o(.ARM.Collect$$libinit$$0000001F) for __rt_lib_init_fp_trap_1
    libinit.o(.ARM.Collect$$libinit$$00000000) refers (Special) to libinit2.o(.ARM.Collect$$libinit$$00000023) for __rt_lib_init_getenv_1
    libinit.o(.ARM.Collect$$libinit$$00000000) refers (Special) to libinit2.o(.ARM.Collect$$libinit$$0000000A) for __rt_lib_init_heap_1
    libinit.o(.ARM.Collect$$libinit$$00000000) refers (Special) to libinit2.o(.ARM.Collect$$libinit$$00000011) for __rt_lib_init_lc_collate_1
    libinit.o(.ARM.Collect$$libinit$$00000000) refers (Special) to libinit2.o(.ARM.Collect$$libinit$$00000013) for __rt_lib_init_lc_ctype_1
    libinit.o(.ARM.Collect$$libinit$$00000000) refers (Special) to libinit2.o(.ARM.Collect$$libinit$$00000015) for __rt_lib_init_lc_monetary_1
    libinit.o(.ARM.Collect$$libinit$$00000000) refers (Special) to libinit2.o(.ARM.Collect$$libinit$$00000017) for __rt_lib_init_lc_numeric_1
    libinit.o(.ARM.Collect$$libinit$$00000000) refers (Special) to libinit2.o(.ARM.Collect$$libinit$$00000019) for __rt_lib_init_lc_time_1
    libinit.o(.ARM.Collect$$libinit$$00000000) refers (Special) to libinit2.o(.ARM.Collect$$libinit$$00000004) for __rt_lib_init_preinit_1
    libinit.o(.ARM.Collect$$libinit$$00000000) refers (Special) to libinit2.o(.ARM.Collect$$libinit$$0000000E) for __rt_lib_init_rand_1
    libinit.o(.ARM.Collect$$libinit$$00000000) refers (Special) to libinit2.o(.ARM.Collect$$libinit$$00000033) for __rt_lib_init_return
    libinit.o(.ARM.Collect$$libinit$$00000000) refers (Special) to libinit2.o(.ARM.Collect$$libinit$$0000001D) for __rt_lib_init_signal_1
    libinit.o(.ARM.Collect$$libinit$$00000000) refers (Special) to libinit2.o(.ARM.Collect$$libinit$$00000025) for __rt_lib_init_stdio_1
    libinit.o(.ARM.Collect$$libinit$$00000000) refers (Special) to libinit2.o(.ARM.Collect$$libinit$$0000000C) for __rt_lib_init_user_alloc_1
    istatus.o(x$fpl$ieeestatus) refers (Special) to usenofp.o(x$fpl$usenofp) for __I$use$fp
    fpclassify.o(i.__ARM_fpclassify) refers (Special) to usenofp.o(x$fpl$usenofp) for __I$use$fp
    libspace.o(.text) refers to libspace.o(.bss) for __libspace_start
    rtexit.o(.ARM.Collect$$rtexit$$00000000) refers (Special) to rtexit2.o(.ARM.Collect$$rtexit$$00000004) for __rt_exit_exit
    rtexit.o(.ARM.Collect$$rtexit$$00000000) refers (Special) to rtexit2.o(.ARM.Collect$$rtexit$$00000003) for __rt_exit_ls
    rtexit.o(.ARM.Collect$$rtexit$$00000000) refers (Special) to rtexit2.o(.ARM.Collect$$rtexit$$00000002) for __rt_exit_prels_1
    rtexit.o(.ARM.exidx) refers (Special) to rtexit2.o(.ARM.Collect$$rtexit$$00000004) for __rt_exit_exit
    rtexit.o(.ARM.exidx) refers (Special) to rtexit2.o(.ARM.Collect$$rtexit$$00000003) for __rt_exit_ls
    rtexit.o(.ARM.exidx) refers (Special) to rtexit2.o(.ARM.Collect$$rtexit$$00000002) for __rt_exit_prels_1
    rtexit.o(.ARM.exidx) refers to rtexit.o(.ARM.Collect$$rtexit$$00000000) for .ARM.Collect$$rtexit$$00000000
    rt_raise.o(.text) refers to __raise.o(.text) for __raise
    rt_raise.o(.text) refers to sys_exit.o(.text) for _sys_exit
    lc_ctype_c.o(locale$$data) refers (Special) to libinit2.o(.ARM.Collect$$libinit$$00000012) for __rt_lib_init_lc_ctype_2
    lc_ctype_c.o(locale$$code) refers (Special) to libinit2.o(.ARM.Collect$$libinit$$00000012) for __rt_lib_init_lc_ctype_2
    lc_ctype_c.o(locale$$code) refers to strcmpv7m.o(.text) for strcmp
    lc_ctype_c.o(locale$$code) refers to lc_ctype_c.o(locale$$data) for __lcctype_c_name
    defsig_exit.o(.text) refers to sys_exit.o(.text) for _sys_exit
    defsig_fpe_inner.o(.text) refers to defsig_general.o(.text) for __default_signal_display
    libinit2.o(.ARM.Collect$$libinit$$0000000F) refers (Weak) to rt_locale_intlibspace.o(.text) for __rt_locale
    libinit2.o(.ARM.Collect$$libinit$$00000010) refers to libinit2.o(.ARM.Collect$$libinit$$0000000F) for .ARM.Collect$$libinit$$0000000F
    libinit2.o(.ARM.Collect$$libinit$$00000012) refers to libinit2.o(.ARM.Collect$$libinit$$0000000F) for .ARM.Collect$$libinit$$0000000F
    libinit2.o(.ARM.Collect$$libinit$$00000012) refers (Weak) to lc_ctype_c.o(locale$$code) for _get_lc_ctype
    libinit2.o(.ARM.Collect$$libinit$$00000014) refers to libinit2.o(.ARM.Collect$$libinit$$0000000F) for .ARM.Collect$$libinit$$0000000F
    libinit2.o(.ARM.Collect$$libinit$$00000016) refers to libinit2.o(.ARM.Collect$$libinit$$0000000F) for .ARM.Collect$$libinit$$0000000F
    libinit2.o(.ARM.Collect$$libinit$$00000016) refers (Weak) to lc_numeric_c.o(locale$$code) for _get_lc_numeric
    libinit2.o(.ARM.Collect$$libinit$$00000018) refers to libinit2.o(.ARM.Collect$$libinit$$0000000F) for .ARM.Collect$$libinit$$0000000F
    libinit2.o(.ARM.Collect$$libinit$$00000026) refers to argv_veneer.o(.emb_text) for __ARM_argv_veneer
    libinit2.o(.ARM.Collect$$libinit$$00000027) refers to argv_veneer.o(.emb_text) for __ARM_argv_veneer
    sys_exit.o(.text) refers (Special) to use_no_semi.o(.text) for __I$use$semihosting
    sys_exit.o(.text) refers (Special) to indicate_semi.o(.text) for __semihosting_library_function
    rtexit2.o(.ARM.Collect$$rtexit$$00000003) refers to libshutdown.o(.ARM.Collect$$libshutdown$$00000000) for __rt_lib_shutdown
    rtexit2.o(.ARM.Collect$$rtexit$$00000004) refers to sys_exit.o(.text) for _sys_exit
    rtexit2.o(.ARM.exidx) refers to rtexit2.o(.ARM.Collect$$rtexit$$00000001) for .ARM.Collect$$rtexit$$00000001
    rtexit2.o(.ARM.exidx) refers to rtexit2.o(.ARM.Collect$$rtexit$$00000003) for .ARM.Collect$$rtexit$$00000003
    rtexit2.o(.ARM.exidx) refers to rtexit2.o(.ARM.Collect$$rtexit$$00000004) for .ARM.Collect$$rtexit$$00000004
    __raise.o(.text) refers to defsig.o(CL$$defsig) for __default_signal_handler
    defsig_general.o(.text) refers to sys_wrch.o(.text) for _ttywrch
    argv_veneer.o(.emb_text) refers to no_argv.o(.text) for __ARM_get_argv
    sys_wrch.o(.text) refers (Special) to use_no_semi.o(.text) for __I$use$semihosting
    sys_wrch.o(.text) refers (Special) to indicate_semi.o(.text) for __semihosting_library_function
    defsig.o(CL$$defsig) refers to defsig_fpe_inner.o(.text) for __rt_SIGFPE_inner
    defsig.o(CL$$defsig) refers to defsig_rtmem_inner.o(.text) for __rt_SIGRTMEM_inner
    _get_argv_nomalloc.o(.text) refers (Special) to hrguard.o(.text) for __heap_region$guard
    _get_argv_nomalloc.o(.text) refers to defsig_rtmem_outer.o(.text) for __rt_SIGRTMEM
    _get_argv_nomalloc.o(.text) refers to sys_command.o(.text) for _sys_command_string
    libshutdown.o(.ARM.Collect$$libshutdown$$00000000) refers (Special) to libshutdown2.o(.ARM.Collect$$libshutdown$$00000002) for __rt_lib_shutdown_cpp_1
    libshutdown.o(.ARM.Collect$$libshutdown$$00000000) refers (Special) to libshutdown2.o(.ARM.Collect$$libshutdown$$00000007) for __rt_lib_shutdown_fp_trap_1
    libshutdown.o(.ARM.Collect$$libshutdown$$00000000) refers (Special) to libshutdown2.o(.ARM.Collect$$libshutdown$$0000000F) for __rt_lib_shutdown_heap_1
    libshutdown.o(.ARM.Collect$$libshutdown$$00000000) refers (Special) to libshutdown2.o(.ARM.Collect$$libshutdown$$00000010) for __rt_lib_shutdown_return
    libshutdown.o(.ARM.Collect$$libshutdown$$00000000) refers (Special) to libshutdown2.o(.ARM.Collect$$libshutdown$$0000000A) for __rt_lib_shutdown_signal_1
    libshutdown.o(.ARM.Collect$$libshutdown$$00000000) refers (Special) to libshutdown2.o(.ARM.Collect$$libshutdown$$00000004) for __rt_lib_shutdown_stdio_1
    libshutdown.o(.ARM.Collect$$libshutdown$$00000000) refers (Special) to libshutdown2.o(.ARM.Collect$$libshutdown$$0000000C) for __rt_lib_shutdown_user_alloc_1
    sys_command.o(.text) refers (Special) to use_no_semi.o(.text) for __I$use$semihosting
    sys_command.o(.text) refers (Special) to indicate_semi.o(.text) for __semihosting_library_function
    defsig_abrt_inner.o(.text) refers to defsig_general.o(.text) for __default_signal_display
    defsig_rtred_inner.o(.text) refers to defsig_general.o(.text) for __default_signal_display
    defsig_rtmem_inner.o(.text) refers to defsig_general.o(.text) for __default_signal_display
    defsig_rtmem_outer.o(.text) refers to defsig_rtmem_inner.o(.text) for __rt_SIGRTMEM_inner
    defsig_rtmem_outer.o(.text) refers to defsig_exit.o(.text) for __sig_exit
    defsig_rtmem_formal.o(.text) refers to rt_raise.o(.text) for __rt_raise
    defsig_stak_inner.o(.text) refers to defsig_general.o(.text) for __default_signal_display
    defsig_pvfn_inner.o(.text) refers to defsig_general.o(.text) for __default_signal_display
    defsig_cppl_inner.o(.text) refers to defsig_general.o(.text) for __default_signal_display
    defsig_segv_inner.o(.text) refers to defsig_general.o(.text) for __default_signal_display
    defsig_other.o(.text) refers to defsig_general.o(.text) for __default_signal_display


==============================================================================

Removing Unused input sections from the image.

    Removing core_cm3.o(.emb_text), (32 bytes).
    Removing misc.o(i.NVIC_SetVectorTable), (20 bytes).
    Removing misc.o(i.NVIC_SystemLPConfig), (32 bytes).
    Removing stm32f10x_adc.o(i.ADC_AnalogWatchdogCmd), (20 bytes).
    Removing stm32f10x_adc.o(i.ADC_AnalogWatchdogSingleChannelConfig), (16 bytes).
    Removing stm32f10x_adc.o(i.ADC_AnalogWatchdogThresholdsConfig), (6 bytes).
    Removing stm32f10x_adc.o(i.ADC_AutoInjectedConvCmd), (22 bytes).
    Removing stm32f10x_adc.o(i.ADC_ClearFlag), (6 bytes).
    Removing stm32f10x_adc.o(i.ADC_ClearITPendingBit), (10 bytes).
    Removing stm32f10x_adc.o(i.ADC_Cmd), (22 bytes).
    Removing stm32f10x_adc.o(i.ADC_DMACmd), (22 bytes).
    Removing stm32f10x_adc.o(i.ADC_DeInit), (92 bytes).
    Removing stm32f10x_adc.o(i.ADC_DiscModeChannelCountConfig), (24 bytes).
    Removing stm32f10x_adc.o(i.ADC_DiscModeCmd), (22 bytes).
    Removing stm32f10x_adc.o(i.ADC_ExternalTrigConvCmd), (22 bytes).
    Removing stm32f10x_adc.o(i.ADC_ExternalTrigInjectedConvCmd), (22 bytes).
    Removing stm32f10x_adc.o(i.ADC_ExternalTrigInjectedConvConfig), (16 bytes).
    Removing stm32f10x_adc.o(i.ADC_GetCalibrationStatus), (20 bytes).
    Removing stm32f10x_adc.o(i.ADC_GetConversionValue), (8 bytes).
    Removing stm32f10x_adc.o(i.ADC_GetDualModeConversionValue), (12 bytes).
    Removing stm32f10x_adc.o(i.ADC_GetFlagStatus), (18 bytes).
    Removing stm32f10x_adc.o(i.ADC_GetITStatus), (36 bytes).
    Removing stm32f10x_adc.o(i.ADC_GetInjectedConversionValue), (28 bytes).
    Removing stm32f10x_adc.o(i.ADC_GetResetCalibrationStatus), (20 bytes).
    Removing stm32f10x_adc.o(i.ADC_GetSoftwareStartConvStatus), (20 bytes).
    Removing stm32f10x_adc.o(i.ADC_GetSoftwareStartInjectedConvCmdStatus), (20 bytes).
    Removing stm32f10x_adc.o(i.ADC_ITConfig), (24 bytes).
    Removing stm32f10x_adc.o(i.ADC_Init), (80 bytes).
    Removing stm32f10x_adc.o(i.ADC_InjectedChannelConfig), (130 bytes).
    Removing stm32f10x_adc.o(i.ADC_InjectedDiscModeCmd), (22 bytes).
    Removing stm32f10x_adc.o(i.ADC_InjectedSequencerLengthConfig), (24 bytes).
    Removing stm32f10x_adc.o(i.ADC_RegularChannelConfig), (184 bytes).
    Removing stm32f10x_adc.o(i.ADC_ResetCalibration), (10 bytes).
    Removing stm32f10x_adc.o(i.ADC_SetInjectedOffset), (20 bytes).
    Removing stm32f10x_adc.o(i.ADC_SoftwareStartConvCmd), (22 bytes).
    Removing stm32f10x_adc.o(i.ADC_SoftwareStartInjectedConvCmd), (22 bytes).
    Removing stm32f10x_adc.o(i.ADC_StartCalibration), (10 bytes).
    Removing stm32f10x_adc.o(i.ADC_StructInit), (18 bytes).
    Removing stm32f10x_adc.o(i.ADC_TempSensorVrefintCmd), (36 bytes).
    Removing stm32f10x_bkp.o(i.BKP_ClearFlag), (20 bytes).
    Removing stm32f10x_bkp.o(i.BKP_ClearITPendingBit), (20 bytes).
    Removing stm32f10x_bkp.o(i.BKP_DeInit), (16 bytes).
    Removing stm32f10x_bkp.o(i.BKP_GetFlagStatus), (12 bytes).
    Removing stm32f10x_bkp.o(i.BKP_GetITStatus), (12 bytes).
    Removing stm32f10x_bkp.o(i.BKP_ITConfig), (12 bytes).
    Removing stm32f10x_bkp.o(i.BKP_RTCOutputConfig), (28 bytes).
    Removing stm32f10x_bkp.o(i.BKP_ReadBackupRegister), (28 bytes).
    Removing stm32f10x_bkp.o(i.BKP_SetRTCCalibrationValue), (28 bytes).
    Removing stm32f10x_bkp.o(i.BKP_TamperPinCmd), (12 bytes).
    Removing stm32f10x_bkp.o(i.BKP_TamperPinLevelConfig), (12 bytes).
    Removing stm32f10x_bkp.o(i.BKP_WriteBackupRegister), (28 bytes).
    Removing stm32f10x_crc.o(i.CRC_CalcBlockCRC), (36 bytes).
    Removing stm32f10x_crc.o(i.CRC_CalcCRC), (16 bytes).
    Removing stm32f10x_crc.o(i.CRC_GetCRC), (12 bytes).
    Removing stm32f10x_crc.o(i.CRC_GetIDRegister), (12 bytes).
    Removing stm32f10x_crc.o(i.CRC_ResetDR), (12 bytes).
    Removing stm32f10x_crc.o(i.CRC_SetIDRegister), (12 bytes).
    Removing stm32f10x_dbgmcu.o(i.DBGMCU_Config), (32 bytes).
    Removing stm32f10x_dbgmcu.o(i.DBGMCU_GetDEVID), (16 bytes).
    Removing stm32f10x_dbgmcu.o(i.DBGMCU_GetREVID), (12 bytes).
    Removing stm32f10x_dma.o(i.DMA_ClearFlag), (28 bytes).
    Removing stm32f10x_dma.o(i.DMA_ClearITPendingBit), (28 bytes).
    Removing stm32f10x_dma.o(i.DMA_Cmd), (24 bytes).
    Removing stm32f10x_dma.o(i.DMA_DeInit), (332 bytes).
    Removing stm32f10x_dma.o(i.DMA_GetCurrDataCounter), (8 bytes).
    Removing stm32f10x_dma.o(i.DMA_GetFlagStatus), (44 bytes).
    Removing stm32f10x_dma.o(i.DMA_GetITStatus), (44 bytes).
    Removing stm32f10x_dma.o(i.DMA_ITConfig), (18 bytes).
    Removing stm32f10x_dma.o(i.DMA_Init), (60 bytes).
    Removing stm32f10x_dma.o(i.DMA_SetCurrDataCounter), (4 bytes).
    Removing stm32f10x_dma.o(i.DMA_StructInit), (26 bytes).
    Removing stm32f10x_exti.o(i.EXTI_ClearFlag), (12 bytes).
    Removing stm32f10x_exti.o(i.EXTI_ClearITPendingBit), (12 bytes).
    Removing stm32f10x_exti.o(i.EXTI_DeInit), (36 bytes).
    Removing stm32f10x_exti.o(i.EXTI_GenerateSWInterrupt), (16 bytes).
    Removing stm32f10x_exti.o(i.EXTI_GetFlagStatus), (24 bytes).
    Removing stm32f10x_exti.o(i.EXTI_GetITStatus), (40 bytes).
    Removing stm32f10x_exti.o(i.EXTI_Init), (148 bytes).
    Removing stm32f10x_exti.o(i.EXTI_StructInit), (16 bytes).
    Removing stm32f10x_flash.o(i.FLASH_ClearFlag), (12 bytes).
    Removing stm32f10x_flash.o(i.FLASH_EnableWriteProtection), (196 bytes).
    Removing stm32f10x_flash.o(i.FLASH_EraseAllBank1Pages), (72 bytes).
    Removing stm32f10x_flash.o(i.FLASH_EraseAllPages), (72 bytes).
    Removing stm32f10x_flash.o(i.FLASH_EraseOptionBytes), (168 bytes).
    Removing stm32f10x_flash.o(i.FLASH_GetFlagStatus), (48 bytes).
    Removing stm32f10x_flash.o(i.FLASH_GetPrefetchBufferStatus), (24 bytes).
    Removing stm32f10x_flash.o(i.FLASH_GetReadOutProtectionStatus), (24 bytes).
    Removing stm32f10x_flash.o(i.FLASH_GetStatus), (52 bytes).
    Removing stm32f10x_flash.o(i.FLASH_GetUserOptionByte), (12 bytes).
    Removing stm32f10x_flash.o(i.FLASH_GetWriteProtectionOptionByte), (12 bytes).
    Removing stm32f10x_flash.o(i.FLASH_HalfCycleAccessCmd), (28 bytes).
    Removing stm32f10x_flash.o(i.FLASH_ITConfig), (32 bytes).
    Removing stm32f10x_flash.o(i.FLASH_LockBank1), (20 bytes).
    Removing stm32f10x_flash.o(i.FLASH_PrefetchBufferCmd), (28 bytes).
    Removing stm32f10x_flash.o(i.FLASH_ProgramOptionByteData), (84 bytes).
    Removing stm32f10x_flash.o(i.FLASH_ProgramWord), (108 bytes).
    Removing stm32f10x_flash.o(i.FLASH_ReadOutProtection), (172 bytes).
    Removing stm32f10x_flash.o(i.FLASH_SetLatency), (24 bytes).
    Removing stm32f10x_flash.o(i.FLASH_UnlockBank1), (24 bytes).
    Removing stm32f10x_flash.o(i.FLASH_UserOptionByteConfig), (104 bytes).
    Removing stm32f10x_flash.o(i.FLASH_WaitForLastBank1Operation), (38 bytes).
    Removing stm32f10x_gpio.o(i.GPIO_AFIODeInit), (20 bytes).
    Removing stm32f10x_gpio.o(i.GPIO_DeInit), (200 bytes).
    Removing stm32f10x_gpio.o(i.GPIO_ETH_MediaInterfaceConfig), (12 bytes).
    Removing stm32f10x_gpio.o(i.GPIO_EXTILineConfig), (64 bytes).
    Removing stm32f10x_gpio.o(i.GPIO_EventOutputCmd), (12 bytes).
    Removing stm32f10x_gpio.o(i.GPIO_EventOutputConfig), (32 bytes).
    Removing stm32f10x_gpio.o(i.GPIO_PinLockConfig), (18 bytes).
    Removing stm32f10x_gpio.o(i.GPIO_PinRemapConfig), (144 bytes).
    Removing stm32f10x_gpio.o(i.GPIO_ReadInputData), (8 bytes).
    Removing stm32f10x_gpio.o(i.GPIO_ReadInputDataBit), (18 bytes).
    Removing stm32f10x_gpio.o(i.GPIO_ReadOutputData), (8 bytes).
    Removing stm32f10x_gpio.o(i.GPIO_ReadOutputDataBit), (18 bytes).
    Removing stm32f10x_gpio.o(i.GPIO_StructInit), (16 bytes).
    Removing stm32f10x_gpio.o(i.GPIO_Write), (4 bytes).
    Removing stm32f10x_gpio.o(i.GPIO_WriteBit), (10 bytes).
    Removing stm32f10x_iwdg.o(i.IWDG_Enable), (16 bytes).
    Removing stm32f10x_iwdg.o(i.IWDG_GetFlagStatus), (24 bytes).
    Removing stm32f10x_iwdg.o(i.IWDG_ReloadCounter), (16 bytes).
    Removing stm32f10x_iwdg.o(i.IWDG_SetPrescaler), (12 bytes).
    Removing stm32f10x_iwdg.o(i.IWDG_SetReload), (12 bytes).
    Removing stm32f10x_iwdg.o(i.IWDG_WriteAccessCmd), (12 bytes).
    Removing stm32f10x_pwr.o(i.PWR_BackupAccessCmd), (12 bytes).
    Removing stm32f10x_pwr.o(i.PWR_ClearFlag), (20 bytes).
    Removing stm32f10x_pwr.o(i.PWR_DeInit), (22 bytes).
    Removing stm32f10x_pwr.o(i.PWR_EnterSTANDBYMode), (52 bytes).
    Removing stm32f10x_pwr.o(i.PWR_EnterSTOPMode), (64 bytes).
    Removing stm32f10x_pwr.o(i.PWR_GetFlagStatus), (24 bytes).
    Removing stm32f10x_pwr.o(i.PWR_PVDCmd), (12 bytes).
    Removing stm32f10x_pwr.o(i.PWR_PVDLevelConfig), (24 bytes).
    Removing stm32f10x_pwr.o(i.PWR_WakeUpPinCmd), (12 bytes).
    Removing stm32f10x_rcc.o(i.RCC_ADCCLKConfig), (24 bytes).
    Removing stm32f10x_rcc.o(i.RCC_AHBPeriphClockCmd), (32 bytes).
    Removing stm32f10x_rcc.o(i.RCC_AdjustHSICalibrationValue), (24 bytes).
    Removing stm32f10x_rcc.o(i.RCC_BackupResetCmd), (12 bytes).
    Removing stm32f10x_rcc.o(i.RCC_ClearFlag), (20 bytes).
    Removing stm32f10x_rcc.o(i.RCC_ClearITPendingBit), (12 bytes).
    Removing stm32f10x_rcc.o(i.RCC_ClockSecuritySystemCmd), (12 bytes).
    Removing stm32f10x_rcc.o(i.RCC_DeInit), (76 bytes).
    Removing stm32f10x_rcc.o(i.RCC_GetFlagStatus), (60 bytes).
    Removing stm32f10x_rcc.o(i.RCC_GetITStatus), (24 bytes).
    Removing stm32f10x_rcc.o(i.RCC_GetSYSCLKSource), (16 bytes).
    Removing stm32f10x_rcc.o(i.RCC_HCLKConfig), (24 bytes).
    Removing stm32f10x_rcc.o(i.RCC_HSEConfig), (76 bytes).
    Removing stm32f10x_rcc.o(i.RCC_HSICmd), (12 bytes).
    Removing stm32f10x_rcc.o(i.RCC_ITConfig), (32 bytes).
    Removing stm32f10x_rcc.o(i.RCC_LSEConfig), (52 bytes).
    Removing stm32f10x_rcc.o(i.RCC_LSICmd), (12 bytes).
    Removing stm32f10x_rcc.o(i.RCC_MCOConfig), (12 bytes).
    Removing stm32f10x_rcc.o(i.RCC_PCLK1Config), (24 bytes).
    Removing stm32f10x_rcc.o(i.RCC_PCLK2Config), (24 bytes).
    Removing stm32f10x_rcc.o(i.RCC_PLLCmd), (12 bytes).
    Removing stm32f10x_rcc.o(i.RCC_PLLConfig), (28 bytes).
    Removing stm32f10x_rcc.o(i.RCC_RTCCLKCmd), (12 bytes).
    Removing stm32f10x_rcc.o(i.RCC_RTCCLKConfig), (16 bytes).
    Removing stm32f10x_rcc.o(i.RCC_SYSCLKConfig), (24 bytes).
    Removing stm32f10x_rcc.o(i.RCC_USBCLKConfig), (12 bytes).
    Removing stm32f10x_rcc.o(i.RCC_WaitForHSEStartUp), (56 bytes).
    Removing stm32f10x_rtc.o(i.RTC_ClearFlag), (16 bytes).
    Removing stm32f10x_rtc.o(i.RTC_ClearITPendingBit), (16 bytes).
    Removing stm32f10x_rtc.o(i.RTC_EnterConfigMode), (20 bytes).
    Removing stm32f10x_rtc.o(i.RTC_ExitConfigMode), (20 bytes).
    Removing stm32f10x_rtc.o(i.RTC_GetCounter), (20 bytes).
    Removing stm32f10x_rtc.o(i.RTC_GetDivider), (24 bytes).
    Removing stm32f10x_rtc.o(i.RTC_GetFlagStatus), (24 bytes).
    Removing stm32f10x_rtc.o(i.RTC_GetITStatus), (36 bytes).
    Removing stm32f10x_rtc.o(i.RTC_ITConfig), (32 bytes).
    Removing stm32f10x_rtc.o(i.RTC_SetAlarm), (28 bytes).
    Removing stm32f10x_rtc.o(i.RTC_SetCounter), (28 bytes).
    Removing stm32f10x_rtc.o(i.RTC_SetPrescaler), (32 bytes).
    Removing stm32f10x_rtc.o(i.RTC_WaitForLastTask), (20 bytes).
    Removing stm32f10x_rtc.o(i.RTC_WaitForSynchro), (36 bytes).
    Removing stm32f10x_spi.o(i.I2S_Cmd), (24 bytes).
    Removing stm32f10x_spi.o(i.I2S_Init), (232 bytes).
    Removing stm32f10x_spi.o(i.I2S_StructInit), (20 bytes).
    Removing stm32f10x_spi.o(i.SPI_BiDirectionalLineConfig), (28 bytes).
    Removing stm32f10x_spi.o(i.SPI_CalculateCRC), (24 bytes).
    Removing stm32f10x_spi.o(i.SPI_Cmd), (24 bytes).
    Removing stm32f10x_spi.o(i.SPI_DataSizeConfig), (18 bytes).
    Removing stm32f10x_spi.o(i.SPI_GetCRC), (16 bytes).
    Removing stm32f10x_spi.o(i.SPI_GetCRCPolynomial), (6 bytes).
    Removing stm32f10x_spi.o(i.SPI_I2S_ClearFlag), (6 bytes).
    Removing stm32f10x_spi.o(i.SPI_I2S_ClearITPendingBit), (20 bytes).
    Removing stm32f10x_spi.o(i.SPI_I2S_DMACmd), (18 bytes).
    Removing stm32f10x_spi.o(i.SPI_I2S_DeInit), (88 bytes).
    Removing stm32f10x_spi.o(i.SPI_I2S_GetFlagStatus), (18 bytes).
    Removing stm32f10x_spi.o(i.SPI_I2S_GetITStatus), (52 bytes).
    Removing stm32f10x_spi.o(i.SPI_I2S_ITConfig), (32 bytes).
    Removing stm32f10x_spi.o(i.SPI_I2S_ReceiveData), (6 bytes).
    Removing stm32f10x_spi.o(i.SPI_I2S_SendData), (4 bytes).
    Removing stm32f10x_spi.o(i.SPI_Init), (60 bytes).
    Removing stm32f10x_spi.o(i.SPI_NSSInternalSoftwareConfig), (30 bytes).
    Removing stm32f10x_spi.o(i.SPI_SSOutputCmd), (24 bytes).
    Removing stm32f10x_spi.o(i.SPI_StructInit), (24 bytes).
    Removing stm32f10x_spi.o(i.SPI_TransmitCRC), (10 bytes).
    Removing stm32f10x_tim.o(i.TI1_Config), (128 bytes).
    Removing stm32f10x_tim.o(i.TI2_Config), (152 bytes).
    Removing stm32f10x_tim.o(i.TI3_Config), (144 bytes).
    Removing stm32f10x_tim.o(i.TI4_Config), (152 bytes).
    Removing stm32f10x_tim.o(i.TIM_ARRPreloadConfig), (24 bytes).
    Removing stm32f10x_tim.o(i.TIM_BDTRConfig), (32 bytes).
    Removing stm32f10x_tim.o(i.TIM_BDTRStructInit), (18 bytes).
    Removing stm32f10x_tim.o(i.TIM_CCPreloadControl), (24 bytes).
    Removing stm32f10x_tim.o(i.TIM_CCxCmd), (30 bytes).
    Removing stm32f10x_tim.o(i.TIM_CCxNCmd), (30 bytes).
    Removing stm32f10x_tim.o(i.TIM_ClearFlag), (6 bytes).
    Removing stm32f10x_tim.o(i.TIM_ClearOC1Ref), (18 bytes).
    Removing stm32f10x_tim.o(i.TIM_ClearOC2Ref), (24 bytes).
    Removing stm32f10x_tim.o(i.TIM_ClearOC3Ref), (18 bytes).
    Removing stm32f10x_tim.o(i.TIM_ClearOC4Ref), (24 bytes).
    Removing stm32f10x_tim.o(i.TIM_CounterModeConfig), (18 bytes).
    Removing stm32f10x_tim.o(i.TIM_CtrlPWMOutputs), (30 bytes).
    Removing stm32f10x_tim.o(i.TIM_DMACmd), (18 bytes).
    Removing stm32f10x_tim.o(i.TIM_DMAConfig), (10 bytes).
    Removing stm32f10x_tim.o(i.TIM_DeInit), (488 bytes).
    Removing stm32f10x_tim.o(i.TIM_ETRClockMode1Config), (54 bytes).
    Removing stm32f10x_tim.o(i.TIM_ETRClockMode2Config), (32 bytes).
    Removing stm32f10x_tim.o(i.TIM_ETRConfig), (28 bytes).
    Removing stm32f10x_tim.o(i.TIM_EncoderInterfaceConfig), (66 bytes).
    Removing stm32f10x_tim.o(i.TIM_ForcedOC1Config), (18 bytes).
    Removing stm32f10x_tim.o(i.TIM_ForcedOC2Config), (26 bytes).
    Removing stm32f10x_tim.o(i.TIM_ForcedOC3Config), (18 bytes).
    Removing stm32f10x_tim.o(i.TIM_ForcedOC4Config), (26 bytes).
    Removing stm32f10x_tim.o(i.TIM_GenerateEvent), (4 bytes).
    Removing stm32f10x_tim.o(i.TIM_GetCapture1), (6 bytes).
    Removing stm32f10x_tim.o(i.TIM_GetCapture2), (6 bytes).
    Removing stm32f10x_tim.o(i.TIM_GetCapture3), (6 bytes).
    Removing stm32f10x_tim.o(i.TIM_GetCapture4), (8 bytes).
    Removing stm32f10x_tim.o(i.TIM_GetCounter), (6 bytes).
    Removing stm32f10x_tim.o(i.TIM_GetFlagStatus), (18 bytes).
    Removing stm32f10x_tim.o(i.TIM_GetPrescaler), (6 bytes).
    Removing stm32f10x_tim.o(i.TIM_ICInit), (172 bytes).
    Removing stm32f10x_tim.o(i.TIM_ICStructInit), (18 bytes).
    Removing stm32f10x_tim.o(i.TIM_ITRxExternalClockConfig), (24 bytes).
    Removing stm32f10x_tim.o(i.TIM_InternalClockConfig), (12 bytes).
    Removing stm32f10x_tim.o(i.TIM_OC1FastConfig), (18 bytes).
    Removing stm32f10x_tim.o(i.TIM_OC1Init), (152 bytes).
    Removing stm32f10x_tim.o(i.TIM_OC1NPolarityConfig), (18 bytes).
    Removing stm32f10x_tim.o(i.TIM_OC1PolarityConfig), (18 bytes).
    Removing stm32f10x_tim.o(i.TIM_OC1PreloadConfig), (18 bytes).
    Removing stm32f10x_tim.o(i.TIM_OC2FastConfig), (26 bytes).
    Removing stm32f10x_tim.o(i.TIM_OC2Init), (164 bytes).
    Removing stm32f10x_tim.o(i.TIM_OC2NPolarityConfig), (26 bytes).
    Removing stm32f10x_tim.o(i.TIM_OC2PolarityConfig), (26 bytes).
    Removing stm32f10x_tim.o(i.TIM_OC2PreloadConfig), (26 bytes).
    Removing stm32f10x_tim.o(i.TIM_OC3FastConfig), (18 bytes).
    Removing stm32f10x_tim.o(i.TIM_OC3Init), (160 bytes).
    Removing stm32f10x_tim.o(i.TIM_OC3NPolarityConfig), (26 bytes).
    Removing stm32f10x_tim.o(i.TIM_OC3PolarityConfig), (26 bytes).
    Removing stm32f10x_tim.o(i.TIM_OC3PreloadConfig), (18 bytes).
    Removing stm32f10x_tim.o(i.TIM_OC4FastConfig), (26 bytes).
    Removing stm32f10x_tim.o(i.TIM_OC4Init), (124 bytes).
    Removing stm32f10x_tim.o(i.TIM_OC4PolarityConfig), (26 bytes).
    Removing stm32f10x_tim.o(i.TIM_OC4PreloadConfig), (26 bytes).
    Removing stm32f10x_tim.o(i.TIM_OCStructInit), (20 bytes).
    Removing stm32f10x_tim.o(i.TIM_PWMIConfig), (124 bytes).
    Removing stm32f10x_tim.o(i.TIM_PrescalerConfig), (6 bytes).
    Removing stm32f10x_tim.o(i.TIM_SelectCCDMA), (24 bytes).
    Removing stm32f10x_tim.o(i.TIM_SelectCOM), (24 bytes).
    Removing stm32f10x_tim.o(i.TIM_SelectHallSensor), (24 bytes).
    Removing stm32f10x_tim.o(i.TIM_SelectInputTrigger), (18 bytes).
    Removing stm32f10x_tim.o(i.TIM_SelectMasterSlaveMode), (18 bytes).
    Removing stm32f10x_tim.o(i.TIM_SelectOCxM), (82 bytes).
    Removing stm32f10x_tim.o(i.TIM_SelectOnePulseMode), (18 bytes).
    Removing stm32f10x_tim.o(i.TIM_SelectOutputTrigger), (18 bytes).
    Removing stm32f10x_tim.o(i.TIM_SelectSlaveMode), (18 bytes).
    Removing stm32f10x_tim.o(i.TIM_SetAutoreload), (4 bytes).
    Removing stm32f10x_tim.o(i.TIM_SetClockDivision), (18 bytes).
    Removing stm32f10x_tim.o(i.TIM_SetCompare1), (4 bytes).
    Removing stm32f10x_tim.o(i.TIM_SetCompare2), (4 bytes).
    Removing stm32f10x_tim.o(i.TIM_SetCompare3), (4 bytes).
    Removing stm32f10x_tim.o(i.TIM_SetCompare4), (6 bytes).
    Removing stm32f10x_tim.o(i.TIM_SetCounter), (4 bytes).
    Removing stm32f10x_tim.o(i.TIM_SetIC1Prescaler), (18 bytes).
    Removing stm32f10x_tim.o(i.TIM_SetIC2Prescaler), (26 bytes).
    Removing stm32f10x_tim.o(i.TIM_SetIC3Prescaler), (18 bytes).
    Removing stm32f10x_tim.o(i.TIM_SetIC4Prescaler), (26 bytes).
    Removing stm32f10x_tim.o(i.TIM_TIxExternalClockConfig), (62 bytes).
    Removing stm32f10x_tim.o(i.TIM_TimeBaseStructInit), (18 bytes).
    Removing stm32f10x_tim.o(i.TIM_UpdateDisableConfig), (24 bytes).
    Removing stm32f10x_tim.o(i.TIM_UpdateRequestConfig), (24 bytes).
    Removing stm32f10x_usart.o(i.USART_ClearFlag), (18 bytes).
    Removing stm32f10x_usart.o(i.USART_ClearITPendingBit), (30 bytes).
    Removing stm32f10x_usart.o(i.USART_ClockInit), (34 bytes).
    Removing stm32f10x_usart.o(i.USART_ClockStructInit), (12 bytes).
    Removing stm32f10x_usart.o(i.USART_DMACmd), (18 bytes).
    Removing stm32f10x_usart.o(i.USART_HalfDuplexCmd), (24 bytes).
    Removing stm32f10x_usart.o(i.USART_IrDACmd), (24 bytes).
    Removing stm32f10x_usart.o(i.USART_IrDAConfig), (18 bytes).
    Removing stm32f10x_usart.o(i.USART_LINBreakDetectLengthConfig), (18 bytes).
    Removing stm32f10x_usart.o(i.USART_LINCmd), (24 bytes).
    Removing stm32f10x_usart.o(i.USART_OneBitMethodCmd), (24 bytes).
    Removing stm32f10x_usart.o(i.USART_OverSampling8Cmd), (22 bytes).
    Removing stm32f10x_usart.o(i.USART_ReceiverWakeUpCmd), (24 bytes).
    Removing stm32f10x_usart.o(i.USART_SendBreak), (10 bytes).
    Removing stm32f10x_usart.o(i.USART_SetAddress), (18 bytes).
    Removing stm32f10x_usart.o(i.USART_SetGuardTime), (16 bytes).
    Removing stm32f10x_usart.o(i.USART_SetPrescaler), (16 bytes).
    Removing stm32f10x_usart.o(i.USART_SmartCardCmd), (24 bytes).
    Removing stm32f10x_usart.o(i.USART_SmartCardNACKCmd), (24 bytes).
    Removing stm32f10x_usart.o(i.USART_StructInit), (24 bytes).
    Removing stm32f10x_usart.o(i.USART_WakeUpConfig), (18 bytes).
    Removing stm32f10x_wwdg.o(i.WWDG_ClearFlag), (12 bytes).
    Removing stm32f10x_wwdg.o(i.WWDG_DeInit), (22 bytes).
    Removing stm32f10x_wwdg.o(i.WWDG_Enable), (16 bytes).
    Removing stm32f10x_wwdg.o(i.WWDG_EnableIT), (12 bytes).
    Removing stm32f10x_wwdg.o(i.WWDG_GetFlagStatus), (12 bytes).
    Removing stm32f10x_wwdg.o(i.WWDG_SetCounter), (16 bytes).
    Removing stm32f10x_wwdg.o(i.WWDG_SetPrescaler), (24 bytes).
    Removing stm32f10x_wwdg.o(i.WWDG_SetWindowValue), (40 bytes).
    Removing adc.o(i.Adc_Init), (196 bytes).
    Removing adc.o(i.Get_Adc_Average), (60 bytes).
    Removing adc.o(i.Get_CPU_Temprate), (120 bytes).
    Removing adc.o(i.MYDMA_Config), (74 bytes).
    Removing adc.o(.bss), (40 bytes).
    Removing delay.o(i.delay_ms), (76 bytes).
    Removing delay.o(i.delay_us), (76 bytes).
    Removing timer.o(i.Get_MillisecTimer_Bluetooth_delay), (12 bytes).
    Removing timer.o(i.Get_SysRunTick), (12 bytes).
    Removing timer.o(i.Set_MillisecTimer_Bluetooth_delay), (12 bytes).
    Removing timer.o(i.Set_MillisecTimer_Rs485_delay), (12 bytes).
    Removing timer.o(i.Set_MillisecTimer_Sensor_Rs485_delay), (12 bytes).
    Removing timer.o(i.TIM3_set_tick), (40 bytes).
    Removing usart.o(i.get_txBuffer), (8 bytes).
    Removing usart.o(i.uart3_output), (52 bytes).
    Removing usart.o(i.uart3_printf), (76 bytes).
    Removing wdg.o(i.IWDG_Feed), (8 bytes).
    Removing wdg.o(i.IWDG_Init), (36 bytes).
    Removing m5310_hard.o(i.NBIOT_Send_Packet), (24 bytes).
    Removing m5310_hard.o(i.NBIOT_send_pipe_input), (168 bytes).
    Removing nbiot_power.o(i.nbiot_power_isenable), (12 bytes).
    Removing dht11.o(i.DHT11_Get_temphumi), (60 bytes).
    Removing dht11.o(i.DHT11_Mode_IPU), (32 bytes).
    Removing dht11.o(i.DHT11_Mode_Out_PP), (36 bytes).
    Removing dht11.o(i.DHT11_init), (56 bytes).
    Removing dht11.o(i.DHT11_loop), (36 bytes).
    Removing dht11.o(i.DHT11_task), (8 bytes).
    Removing dht11.o(i.Get_Dht11_Data), (8 bytes).
    Removing dht11.o(i.Read_Byte), (100 bytes).
    Removing dht11.o(i.Read_DHT11), (172 bytes).
    Removing dht11.o(.data), (20 bytes).
    Removing chip_flash.o(i.chip_crc_flash), (132 bytes).
    Removing chip_flash.o(i.chip_erase_flash), (80 bytes).
    Removing chip_flash.o(i.chip_read_app_header), (28 bytes).
    Removing chip_flash.o(i.chip_write_app_header), (28 bytes).
    Removing common.o(i.Reverse_Stream_Order_2byte), (44 bytes).
    Removing common.o(i.Reverse_Stream_Order_4byte), (80 bytes).
    Removing common.o(i.Reverse_Stream_Order_8byte), (152 bytes).
    Removing common.o(i.Reverse_Stream_Order_DOU), (24 bytes).
    Removing common.o(i.Reverse_Stream_Order_Float), (24 bytes).
    Removing common.o(i.Reverse_Stream_Order_Int), (12 bytes).
    Removing common.o(i.Reverse_Stream_Order_LL), (24 bytes).
    Removing common.o(i.Reverse_Stream_Order_Long), (24 bytes).
    Removing common.o(i.Reverse_Stream_Order_Short), (24 bytes).
    Removing common.o(i.Reverse_Stream_Order_UInt), (12 bytes).
    Removing common.o(i.Reverse_Stream_Order_ULL), (24 bytes).
    Removing common.o(i.Reverse_Stream_Order_ULong), (24 bytes).
    Removing common.o(i.Reverse_Stream_Order_Ushort), (24 bytes).
    Removing common.o(i.char_to_num), (52 bytes).
    Removing common.o(i.decode_number), (364 bytes).
    Removing common.o(i.hexbytestr_to_num), (72 bytes).
    Removing common.o(i.hexuintstr_to_num), (64 bytes).
    Removing common.o(i.htonl), (28 bytes).
    Removing common.o(i.htons), (12 bytes).
    Removing common.o(i.my_memstr), (126 bytes).
    Removing common.o(i.ntohl), (28 bytes).
    Removing common.o(i.ntohs), (12 bytes).
    Removing common.o(i.num_to_char), (30 bytes).
    Removing common.o(.data), (8 bytes).
    Removing config.o(i.Config_Change_Event), (24 bytes).
    Removing config.o(i.Config_Init), (64 bytes).
    Removing config.o(i.Config_Read_Device_IMEI), (12 bytes).
    Removing config.o(i.Config_Read_ServerInfo), (44 bytes).
    Removing config.o(i.Config_Read_Zone), (12 bytes).
    Removing config.o(i.Config_Write_Device_IMEI), (72 bytes).
    Removing config.o(i.Config_Write_ServerInfo), (100 bytes).
    Removing config.o(i.Config_Write_Zone), (36 bytes).
    Removing config.o(i._checkApp), (4 bytes).
    Removing oscrc32.o(i.u4_oscrc32), (52 bytes).
    Removing oscrc32.o(.constdata), (1024 bytes).
    Removing public.o(i.CRC32Value), (36 bytes).
    Removing public.o(i.Caculate_CRC16), (88 bytes).
    Removing public.o(i.CalculateBlockCRC32), (52 bytes).
    Removing public.o(i.CheckSum), (68 bytes).
    Removing public.o(i.CheckXOR), (68 bytes).
    Removing public.o(i.DEC2HEX), (114 bytes).
    Removing public.o(i.GetBuffer), (8 bytes).
    Removing public.o(i.HEX2DEC), (114 bytes).
    Removing public.o(i.IPaddressPhare), (132 bytes).
    Removing public.o(i.Pipe_Check), (104 bytes).
    Removing public.o(i.Pipe_Remove), (60 bytes).
    Removing public.o(i.Pipe_Reset), (16 bytes).
    Removing public.o(i._ptxBuffer), (8 bytes).
    Removing public.o(i.isBCDencodeing), (80 bytes).
    Removing public.o(.data), (3 bytes).
    Removing system_stm32f10x.o(i.SystemCoreClockUpdate), (164 bytes).
    Removing user_m5310.o(i.Get_AT_Step), (12 bytes).
    Removing m5310_onenet.o(i.get_command_len), (12 bytes).
    Removing m5310_onenet.o(i.hex_to_hexstring), (384 bytes).
    Removing m5310_onenet.o(i.init_miplconf), (164 bytes).
    Removing m5310_onenet.o(i.mipl_generate), (256 bytes).
    Removing m5310_onenet.o(i.nbiot_itoa), (106 bytes).
    Removing m5310_onenet.o(i.nbiot_strncpy), (36 bytes).
    Removing m5310_onenet.o(.bss), (1536 bytes).
    Removing m5310_onenet.o(.data), (4 bytes).

405 unused section(s) (total 19057 bytes) removed from the image.

==============================================================================

Image Symbol Table

    Local Symbols

    Symbol Name                              Value     Ov Type        Size  Object(Section)

    ../clib/angel/boardlib.s                 0x00000000   Number         0  boardinit3.o ABSOLUTE
    ../clib/angel/boardlib.s                 0x00000000   Number         0  boardinit2.o ABSOLUTE
    ../clib/angel/boardlib.s                 0x00000000   Number         0  boardinit1.o ABSOLUTE
    ../clib/angel/boardlib.s                 0x00000000   Number         0  boardshut.o ABSOLUTE
    ../clib/angel/handlers.s                 0x00000000   Number         0  __scatter_zi.o ABSOLUTE
    ../clib/angel/handlers.s                 0x00000000   Number         0  __scatter_copy.o ABSOLUTE
    ../clib/angel/kernel.s                   0x00000000   Number         0  __rtentry.o ABSOLUTE
    ../clib/angel/kernel.s                   0x00000000   Number         0  rtexit.o ABSOLUTE
    ../clib/angel/kernel.s                   0x00000000   Number         0  __rtentry2.o ABSOLUTE
    ../clib/angel/kernel.s                   0x00000000   Number         0  __rtentry4.o ABSOLUTE
    ../clib/angel/kernel.s                   0x00000000   Number         0  rtexit2.o ABSOLUTE
    ../clib/angel/rt.s                       0x00000000   Number         0  rt_raise.o ABSOLUTE
    ../clib/angel/rt.s                       0x00000000   Number         0  aeabi_ldiv0.o ABSOLUTE
    ../clib/angel/rt.s                       0x00000000   Number         0  aeabi_ldiv0_sigfpe.o ABSOLUTE
    ../clib/angel/rt.s                       0x00000000   Number         0  rt_div0.o ABSOLUTE
    ../clib/angel/rt.s                       0x00000000   Number         0  rt_ctype_table.o ABSOLUTE
    ../clib/angel/rt.s                       0x00000000   Number         0  rt_locale.o ABSOLUTE
    ../clib/angel/rt.s                       0x00000000   Number         0  rt_locale_intlibspace.o ABSOLUTE
    ../clib/angel/scatter.s                  0x00000000   Number         0  __scatter.o ABSOLUTE
    ../clib/angel/startup.s                  0x00000000   Number         0  __main.o ABSOLUTE
    ../clib/angel/sys.s                      0x00000000   Number         0  sys_stackheap_outer.o ABSOLUTE
    ../clib/angel/sys.s                      0x00000000   Number         0  libspace.o ABSOLUTE
    ../clib/angel/sys.s                      0x00000000   Number         0  use_no_semi.o ABSOLUTE
    ../clib/angel/sys.s                      0x00000000   Number         0  indicate_semi.o ABSOLUTE
    ../clib/angel/sysapp.c                   0x00000000   Number         0  sys_command.o ABSOLUTE
    ../clib/angel/sysapp.c                   0x00000000   Number         0  sys_wrch.o ABSOLUTE
    ../clib/angel/sysapp.c                   0x00000000   Number         0  sys_exit.o ABSOLUTE
    ../clib/armsys.c                         0x00000000   Number         0  argv_veneer.o ABSOLUTE
    ../clib/armsys.c                         0x00000000   Number         0  no_argv.o ABSOLUTE
    ../clib/armsys.c                         0x00000000   Number         0  argv_veneer.o ABSOLUTE
    ../clib/armsys.c                         0x00000000   Number         0  _get_argv_nomalloc.o ABSOLUTE
    ../clib/bigflt.c                         0x00000000   Number         0  bigflt0.o ABSOLUTE
    ../clib/btod.s                           0x00000000   Number         0  btod.o ABSOLUTE
    ../clib/heapalloc.c                      0x00000000   Number         0  hrguard.o ABSOLUTE
    ../clib/heapaux.c                        0x00000000   Number         0  heapauxi.o ABSOLUTE
    ../clib/libinit.s                        0x00000000   Number         0  libshutdown.o ABSOLUTE
    ../clib/libinit.s                        0x00000000   Number         0  libinit.o ABSOLUTE
    ../clib/libinit.s                        0x00000000   Number         0  libinit2.o ABSOLUTE
    ../clib/libinit.s                        0x00000000   Number         0  libshutdown2.o ABSOLUTE
    ../clib/locale.c                         0x00000000   Number         0  _wcrtomb.o ABSOLUTE
    ../clib/locale.s                         0x00000000   Number         0  lc_ctype_c.o ABSOLUTE
    ../clib/locale.s                         0x00000000   Number         0  lc_numeric_c.o ABSOLUTE
    ../clib/longlong.s                       0x00000000   Number         0  lludiv10.o ABSOLUTE
    ../clib/longlong.s                       0x00000000   Number         0  lludivv7m.o ABSOLUTE
    ../clib/memcpset.s                       0x00000000   Number         0  strcmpv7m.o ABSOLUTE
    ../clib/memcpset.s                       0x00000000   Number         0  rt_memcpy_w.o ABSOLUTE
    ../clib/memcpset.s                       0x00000000   Number         0  rt_memclr.o ABSOLUTE
    ../clib/memcpset.s                       0x00000000   Number         0  rt_memcpy_v6.o ABSOLUTE
    ../clib/memcpset.s                       0x00000000   Number         0  rt_memmove_w.o ABSOLUTE
    ../clib/memcpset.s                       0x00000000   Number         0  rt_memmove_v6.o ABSOLUTE
    ../clib/memcpset.s                       0x00000000   Number         0  aeabi_memset.o ABSOLUTE
    ../clib/memcpset.s                       0x00000000   Number         0  rt_memclr_w.o ABSOLUTE
    ../clib/misc.s                           0x00000000   Number         0  printf_stubs.o ABSOLUTE
    ../clib/printf.c                         0x00000000   Number         0  __printf_flags.o ABSOLUTE
    ../clib/printf.c                         0x00000000   Number         0  __printf_ss.o ABSOLUTE
    ../clib/printf.c                         0x00000000   Number         0  __printf_flags_ss.o ABSOLUTE
    ../clib/printf.c                         0x00000000   Number         0  __printf_wp.o ABSOLUTE
    ../clib/printf.c                         0x00000000   Number         0  _printf_hex_ll_ptr.o ABSOLUTE
    ../clib/printf.c                         0x00000000   Number         0  __printf_flags_wp.o ABSOLUTE
    ../clib/printf.c                         0x00000000   Number         0  _printf_hex_int_ptr.o ABSOLUTE
    ../clib/printf.c                         0x00000000   Number         0  _printf_hex_ptr.o ABSOLUTE
    ../clib/printf.c                         0x00000000   Number         0  _printf_hex_int.o ABSOLUTE
    ../clib/printf.c                         0x00000000   Number         0  __printf_ss_wp.o ABSOLUTE
    ../clib/printf.c                         0x00000000   Number         0  __printf_flags_ss_wp.o ABSOLUTE
    ../clib/printf.c                         0x00000000   Number         0  _printf_hex_ll.o ABSOLUTE
    ../clib/printf.c                         0x00000000   Number         0  _printf_fp_infnan.o ABSOLUTE
    ../clib/printf.c                         0x00000000   Number         0  _printf_oct_int_ll.o ABSOLUTE
    ../clib/printf.c                         0x00000000   Number         0  _printf_oct_int.o ABSOLUTE
    ../clib/printf.c                         0x00000000   Number         0  _printf_oct_ll.o ABSOLUTE
    ../clib/printf.c                         0x00000000   Number         0  _printf_longlong_dec.o ABSOLUTE
    ../clib/printf.c                         0x00000000   Number         0  _printf_wctomb.o ABSOLUTE
    ../clib/printf.c                         0x00000000   Number         0  _printf_char.o ABSOLUTE
    ../clib/printf.c                         0x00000000   Number         0  _sputc.o ABSOLUTE
    ../clib/printf.c                         0x00000000   Number         0  _printf_char_common.o ABSOLUTE
    ../clib/printf.c                         0x00000000   Number         0  _printf_charcount.o ABSOLUTE
    ../clib/printf.c                         0x00000000   Number         0  _printf_truncate.o ABSOLUTE
    ../clib/printf.c                         0x00000000   Number         0  vsprintf.o ABSOLUTE
    ../clib/printf.c                         0x00000000   Number         0  _printf_pad.o ABSOLUTE
    ../clib/printf.c                         0x00000000   Number         0  _printf_intcommon.o ABSOLUTE
    ../clib/printf.c                         0x00000000   Number         0  __2sprintf.o ABSOLUTE
    ../clib/printf.c                         0x00000000   Number         0  _printf_fp_dec.o ABSOLUTE
    ../clib/printf.c                         0x00000000   Number         0  _printf_fp_hex.o ABSOLUTE
    ../clib/printf.c                         0x00000000   Number         0  _printf_hex_int_ll.o ABSOLUTE
    ../clib/printf.c                         0x00000000   Number         0  noretval__2sprintf.o ABSOLUTE
    ../clib/printf.c                         0x00000000   Number         0  __printf.o ABSOLUTE
    ../clib/printf.c                         0x00000000   Number         0  _printf_str.o ABSOLUTE
    ../clib/printf.c                         0x00000000   Number         0  _printf_hex_int_ll_ptr.o ABSOLUTE
    ../clib/printf.c                         0x00000000   Number         0  __printf_nopercent.o ABSOLUTE
    ../clib/printf.c                         0x00000000   Number         0  _printf_dec.o ABSOLUTE
    ../clib/printf.c                         0x00000000   Number         0  _printf_wchar.o ABSOLUTE
    ../clib/printf_percent.s                 0x00000000   Number         0  _printf_percent_end.o ABSOLUTE
    ../clib/printf_percent.s                 0x00000000   Number         0  _printf_a.o ABSOLUTE
    ../clib/printf_percent.s                 0x00000000   Number         0  _printf_n.o ABSOLUTE
    ../clib/printf_percent.s                 0x00000000   Number         0  _printf_c.o ABSOLUTE
    ../clib/printf_percent.s                 0x00000000   Number         0  _printf_g.o ABSOLUTE
    ../clib/printf_percent.s                 0x00000000   Number         0  _printf_e.o ABSOLUTE
    ../clib/printf_percent.s                 0x00000000   Number         0  _printf_f.o ABSOLUTE
    ../clib/printf_percent.s                 0x00000000   Number         0  _printf_u.o ABSOLUTE
    ../clib/printf_percent.s                 0x00000000   Number         0  _printf_i.o ABSOLUTE
    ../clib/printf_percent.s                 0x00000000   Number         0  _printf_o.o ABSOLUTE
    ../clib/printf_percent.s                 0x00000000   Number         0  _printf_p.o ABSOLUTE
    ../clib/printf_percent.s                 0x00000000   Number         0  _printf_x.o ABSOLUTE
    ../clib/printf_percent.s                 0x00000000   Number         0  _printf_s.o ABSOLUTE
    ../clib/printf_percent.s                 0x00000000   Number         0  _printf_d.o ABSOLUTE
    ../clib/printf_percent.s                 0x00000000   Number         0  _printf_percent.o ABSOLUTE
    ../clib/printf_percent.s                 0x00000000   Number         0  _printf_llx.o ABSOLUTE
    ../clib/printf_percent.s                 0x00000000   Number         0  _printf_llo.o ABSOLUTE
    ../clib/printf_percent.s                 0x00000000   Number         0  _printf_ls.o ABSOLUTE
    ../clib/printf_percent.s                 0x00000000   Number         0  _printf_lc.o ABSOLUTE
    ../clib/printf_percent.s                 0x00000000   Number         0  _printf_l.o ABSOLUTE
    ../clib/printf_percent.s                 0x00000000   Number         0  _printf_ll.o ABSOLUTE
    ../clib/printf_percent.s                 0x00000000   Number         0  _printf_llu.o ABSOLUTE
    ../clib/printf_percent.s                 0x00000000   Number         0  _printf_lld.o ABSOLUTE
    ../clib/printf_percent.s                 0x00000000   Number         0  _printf_lli.o ABSOLUTE
    ../clib/signal.c                         0x00000000   Number         0  __raise.o ABSOLUTE
    ../clib/signal.c                         0x00000000   Number         0  defsig_fpe_formal.o ABSOLUTE
    ../clib/signal.c                         0x00000000   Number         0  defsig_abrt_inner.o ABSOLUTE
    ../clib/signal.c                         0x00000000   Number         0  defsig_fpe_outer.o ABSOLUTE
    ../clib/signal.c                         0x00000000   Number         0  defsig_rtred_inner.o ABSOLUTE
    ../clib/signal.c                         0x00000000   Number         0  defsig_fpe_inner.o ABSOLUTE
    ../clib/signal.c                         0x00000000   Number         0  defsig_other.o ABSOLUTE
    ../clib/signal.c                         0x00000000   Number         0  defsig_exit.o ABSOLUTE
    ../clib/signal.c                         0x00000000   Number         0  defsig_segv_inner.o ABSOLUTE
    ../clib/signal.c                         0x00000000   Number         0  defsig_cppl_inner.o ABSOLUTE
    ../clib/signal.c                         0x00000000   Number         0  defsig_pvfn_inner.o ABSOLUTE
    ../clib/signal.c                         0x00000000   Number         0  defsig_general.o ABSOLUTE
    ../clib/signal.c                         0x00000000   Number         0  defsig_stak_inner.o ABSOLUTE
    ../clib/signal.c                         0x00000000   Number         0  defsig_rtmem_formal.o ABSOLUTE
    ../clib/signal.c                         0x00000000   Number         0  defsig_rtmem_outer.o ABSOLUTE
    ../clib/signal.c                         0x00000000   Number         0  defsig_rtmem_inner.o ABSOLUTE
    ../clib/signal.s                         0x00000000   Number         0  defsig.o ABSOLUTE
    ../clib/stdlib.c                         0x00000000   Number         0  exit.o ABSOLUTE
    ../clib/string.c                         0x00000000   Number         0  strcat.o ABSOLUTE
    ../clib/string.c                         0x00000000   Number         0  strlen.o ABSOLUTE
    ../clib/string.c                         0x00000000   Number         0  memcmp.o ABSOLUTE
    ../clib/string.c                         0x00000000   Number         0  strcpy.o ABSOLUTE
    ../fplib/d2f.s                           0x00000000   Number         0  d2f.o ABSOLUTE
    ../fplib/daddsub.s                       0x00000000   Number         0  daddsub_clz.o ABSOLUTE
    ../fplib/ddiv.s                          0x00000000   Number         0  ddiv.o ABSOLUTE
    ../fplib/dflt.s                          0x00000000   Number         0  dflt_clz.o ABSOLUTE
    ../fplib/dmul.s                          0x00000000   Number         0  dmul.o ABSOLUTE
    ../fplib/dnaninf.s                       0x00000000   Number         0  dnaninf.o ABSOLUTE
    ../fplib/dretinf.s                       0x00000000   Number         0  dretinf.o ABSOLUTE
    ../fplib/f2d.s                           0x00000000   Number         0  f2d.o ABSOLUTE
    ../fplib/fflt.s                          0x00000000   Number         0  fflt_clz.o ABSOLUTE
    ../fplib/fnaninf.s                       0x00000000   Number         0  fnaninf.o ABSOLUTE
    ../fplib/fpinit.s                        0x00000000   Number         0  fpinit.o ABSOLUTE
    ../fplib/fretinf.s                       0x00000000   Number         0  fretinf.o ABSOLUTE
    ../fplib/istatus.s                       0x00000000   Number         0  istatus.o ABSOLUTE
    ../fplib/printf1.s                       0x00000000   Number         0  printf1.o ABSOLUTE
    ../fplib/printf2.s                       0x00000000   Number         0  printf2.o ABSOLUTE
    ../fplib/printf2a.s                      0x00000000   Number         0  printf2a.o ABSOLUTE
    ../fplib/printf2b.s                      0x00000000   Number         0  printf2b.o ABSOLUTE
    ../fplib/usenofp.s                       0x00000000   Number         0  usenofp.o ABSOLUTE
    ../mathlib/fpclassify.c                  0x00000000   Number         0  fpclassify.o ABSOLUTE
    ..\Source\hardware\src\adc.c             0x00000000   Number         0  adc.o ABSOLUTE
    ..\Source\hardware\src\delay.c           0x00000000   Number         0  delay.o ABSOLUTE
    ..\Source\hardware\src\dht11.c           0x00000000   Number         0  dht11.o ABSOLUTE
    ..\Source\hardware\src\led.c             0x00000000   Number         0  led.o ABSOLUTE
    ..\Source\hardware\src\m5310_hard.c      0x00000000   Number         0  m5310_hard.o ABSOLUTE
    ..\Source\hardware\src\nbiot_power.c     0x00000000   Number         0  nbiot_power.o ABSOLUTE
    ..\Source\hardware\src\stmflash.c        0x00000000   Number         0  stmflash.o ABSOLUTE
    ..\Source\hardware\src\sys.c             0x00000000   Number         0  sys.o ABSOLUTE
    ..\Source\hardware\src\timer.c           0x00000000   Number         0  timer.o ABSOLUTE
    ..\Source\hardware\src\usart.c           0x00000000   Number         0  usart.o ABSOLUTE
    ..\Source\hardware\src\wdg.c             0x00000000   Number         0  wdg.o ABSOLUTE
    ..\Source\kernel\core\core_cm3.c         0x00000000   Number         0  core_cm3.o ABSOLUTE
    ..\Source\kernel\core\startup_stm32f10x_hd.s 0x00000000   Number         0  startup_stm32f10x_hd.o ABSOLUTE
    ..\Source\kernel\firmlib\STM32F10x_FWLib\src\misc.c 0x00000000   Number         0  misc.o ABSOLUTE
    ..\Source\kernel\firmlib\STM32F10x_FWLib\src\stm32f10x_adc.c 0x00000000   Number         0  stm32f10x_adc.o ABSOLUTE
    ..\Source\kernel\firmlib\STM32F10x_FWLib\src\stm32f10x_bkp.c 0x00000000   Number         0  stm32f10x_bkp.o ABSOLUTE
    ..\Source\kernel\firmlib\STM32F10x_FWLib\src\stm32f10x_crc.c 0x00000000   Number         0  stm32f10x_crc.o ABSOLUTE
    ..\Source\kernel\firmlib\STM32F10x_FWLib\src\stm32f10x_dbgmcu.c 0x00000000   Number         0  stm32f10x_dbgmcu.o ABSOLUTE
    ..\Source\kernel\firmlib\STM32F10x_FWLib\src\stm32f10x_dma.c 0x00000000   Number         0  stm32f10x_dma.o ABSOLUTE
    ..\Source\kernel\firmlib\STM32F10x_FWLib\src\stm32f10x_exti.c 0x00000000   Number         0  stm32f10x_exti.o ABSOLUTE
    ..\Source\kernel\firmlib\STM32F10x_FWLib\src\stm32f10x_flash.c 0x00000000   Number         0  stm32f10x_flash.o ABSOLUTE
    ..\Source\kernel\firmlib\STM32F10x_FWLib\src\stm32f10x_gpio.c 0x00000000   Number         0  stm32f10x_gpio.o ABSOLUTE
    ..\Source\kernel\firmlib\STM32F10x_FWLib\src\stm32f10x_iwdg.c 0x00000000   Number         0  stm32f10x_iwdg.o ABSOLUTE
    ..\Source\kernel\firmlib\STM32F10x_FWLib\src\stm32f10x_pwr.c 0x00000000   Number         0  stm32f10x_pwr.o ABSOLUTE
    ..\Source\kernel\firmlib\STM32F10x_FWLib\src\stm32f10x_rcc.c 0x00000000   Number         0  stm32f10x_rcc.o ABSOLUTE
    ..\Source\kernel\firmlib\STM32F10x_FWLib\src\stm32f10x_rtc.c 0x00000000   Number         0  stm32f10x_rtc.o ABSOLUTE
    ..\Source\kernel\firmlib\STM32F10x_FWLib\src\stm32f10x_spi.c 0x00000000   Number         0  stm32f10x_spi.o ABSOLUTE
    ..\Source\kernel\firmlib\STM32F10x_FWLib\src\stm32f10x_tim.c 0x00000000   Number         0  stm32f10x_tim.o ABSOLUTE
    ..\Source\kernel\firmlib\STM32F10x_FWLib\src\stm32f10x_usart.c 0x00000000   Number         0  stm32f10x_usart.o ABSOLUTE
    ..\Source\kernel\firmlib\STM32F10x_FWLib\src\stm32f10x_wwdg.c 0x00000000   Number         0  stm32f10x_wwdg.o ABSOLUTE
    ..\Source\user\System\stm32f10x_it.c     0x00000000   Number         0  stm32f10x_it.o ABSOLUTE
    ..\Source\user\System\system_stm32f10x.c 0x00000000   Number         0  system_stm32f10x.o ABSOLUTE
    ..\Source\user\src\PUBLIC.C              0x00000000   Number         0  public.o ABSOLUTE
    ..\Source\user\src\chip_flash.c          0x00000000   Number         0  chip_flash.o ABSOLUTE
    ..\Source\user\src\common.c              0x00000000   Number         0  common.o ABSOLUTE
    ..\Source\user\src\config.c              0x00000000   Number         0  config.o ABSOLUTE
    ..\Source\user\src\m5310_onenet.c        0x00000000   Number         0  m5310_onenet.o ABSOLUTE
    ..\Source\user\src\main.c                0x00000000   Number         0  main.o ABSOLUTE
    ..\Source\user\src\oscrc32.c             0x00000000   Number         0  oscrc32.o ABSOLUTE
    ..\Source\user\src\user_m5310.c          0x00000000   Number         0  user_m5310.o ABSOLUTE
    ..\\Source\\kernel\\core\\core_cm3.c     0x00000000   Number         0  core_cm3.o ABSOLUTE
    dc.s                                     0x00000000   Number         0  dc.o ABSOLUTE
    RESET                                    0x08000000   Section      304  startup_stm32f10x_hd.o(RESET)
    !!!main                                  0x08000130   Section        8  __main.o(!!!main)
    !!!scatter                               0x08000138   Section       52  __scatter.o(!!!scatter)
    !!handler_copy                           0x0800016c   Section       26  __scatter_copy.o(!!handler_copy)
    !!handler_zi                             0x08000188   Section       28  __scatter_zi.o(!!handler_zi)
    .ARM.Collect$$_printf_percent$$00000000  0x080001a4   Section        0  _printf_percent.o(.ARM.Collect$$_printf_percent$$00000000)
    .ARM.Collect$$_printf_percent$$00000001  0x080001a4   Section        6  _printf_n.o(.ARM.Collect$$_printf_percent$$00000001)
    .ARM.Collect$$_printf_percent$$00000002  0x080001aa   Section        6  _printf_p.o(.ARM.Collect$$_printf_percent$$00000002)
    .ARM.Collect$$_printf_percent$$00000003  0x080001b0   Section        6  _printf_f.o(.ARM.Collect$$_printf_percent$$00000003)
    .ARM.Collect$$_printf_percent$$00000004  0x080001b6   Section        6  _printf_e.o(.ARM.Collect$$_printf_percent$$00000004)
    .ARM.Collect$$_printf_percent$$00000005  0x080001bc   Section        6  _printf_g.o(.ARM.Collect$$_printf_percent$$00000005)
    .ARM.Collect$$_printf_percent$$00000006  0x080001c2   Section        6  _printf_a.o(.ARM.Collect$$_printf_percent$$00000006)
    .ARM.Collect$$_printf_percent$$00000007  0x080001c8   Section       10  _printf_ll.o(.ARM.Collect$$_printf_percent$$00000007)
    .ARM.Collect$$_printf_percent$$00000008  0x080001d2   Section        6  _printf_i.o(.ARM.Collect$$_printf_percent$$00000008)
    .ARM.Collect$$_printf_percent$$00000009  0x080001d8   Section        6  _printf_d.o(.ARM.Collect$$_printf_percent$$00000009)
    .ARM.Collect$$_printf_percent$$0000000A  0x080001de   Section        6  _printf_u.o(.ARM.Collect$$_printf_percent$$0000000A)
    .ARM.Collect$$_printf_percent$$0000000B  0x080001e4   Section        6  _printf_o.o(.ARM.Collect$$_printf_percent$$0000000B)
    .ARM.Collect$$_printf_percent$$0000000C  0x080001ea   Section        6  _printf_x.o(.ARM.Collect$$_printf_percent$$0000000C)
    .ARM.Collect$$_printf_percent$$0000000D  0x080001f0   Section        6  _printf_lli.o(.ARM.Collect$$_printf_percent$$0000000D)
    .ARM.Collect$$_printf_percent$$0000000E  0x080001f6   Section        6  _printf_lld.o(.ARM.Collect$$_printf_percent$$0000000E)
    .ARM.Collect$$_printf_percent$$0000000F  0x080001fc   Section        6  _printf_llu.o(.ARM.Collect$$_printf_percent$$0000000F)
    .ARM.Collect$$_printf_percent$$00000010  0x08000202   Section        6  _printf_llo.o(.ARM.Collect$$_printf_percent$$00000010)
    .ARM.Collect$$_printf_percent$$00000011  0x08000208   Section        6  _printf_llx.o(.ARM.Collect$$_printf_percent$$00000011)
    .ARM.Collect$$_printf_percent$$00000012  0x0800020e   Section       10  _printf_l.o(.ARM.Collect$$_printf_percent$$00000012)
    .ARM.Collect$$_printf_percent$$00000013  0x08000218   Section        6  _printf_c.o(.ARM.Collect$$_printf_percent$$00000013)
    .ARM.Collect$$_printf_percent$$00000014  0x0800021e   Section        6  _printf_s.o(.ARM.Collect$$_printf_percent$$00000014)
    .ARM.Collect$$_printf_percent$$00000015  0x08000224   Section        6  _printf_lc.o(.ARM.Collect$$_printf_percent$$00000015)
    .ARM.Collect$$_printf_percent$$00000016  0x0800022a   Section        6  _printf_ls.o(.ARM.Collect$$_printf_percent$$00000016)
    .ARM.Collect$$_printf_percent$$00000017  0x08000230   Section        4  _printf_percent_end.o(.ARM.Collect$$_printf_percent$$00000017)
    .ARM.Collect$$libinit$$00000000          0x08000234   Section        2  libinit.o(.ARM.Collect$$libinit$$00000000)
    .ARM.Collect$$libinit$$00000002          0x08000236   Section        0  libinit2.o(.ARM.Collect$$libinit$$00000002)
    .ARM.Collect$$libinit$$00000004          0x08000236   Section        0  libinit2.o(.ARM.Collect$$libinit$$00000004)
    .ARM.Collect$$libinit$$0000000A          0x08000236   Section        0  libinit2.o(.ARM.Collect$$libinit$$0000000A)
    .ARM.Collect$$libinit$$0000000C          0x08000236   Section        0  libinit2.o(.ARM.Collect$$libinit$$0000000C)
    .ARM.Collect$$libinit$$0000000E          0x08000236   Section        0  libinit2.o(.ARM.Collect$$libinit$$0000000E)
    .ARM.Collect$$libinit$$0000000F          0x08000236   Section        6  libinit2.o(.ARM.Collect$$libinit$$0000000F)
    .ARM.Collect$$libinit$$00000011          0x0800023c   Section        0  libinit2.o(.ARM.Collect$$libinit$$00000011)
    .ARM.Collect$$libinit$$00000012          0x0800023c   Section       12  libinit2.o(.ARM.Collect$$libinit$$00000012)
    .ARM.Collect$$libinit$$00000013          0x08000248   Section        0  libinit2.o(.ARM.Collect$$libinit$$00000013)
    .ARM.Collect$$libinit$$00000015          0x08000248   Section        0  libinit2.o(.ARM.Collect$$libinit$$00000015)
    .ARM.Collect$$libinit$$00000016          0x08000248   Section       10  libinit2.o(.ARM.Collect$$libinit$$00000016)
    .ARM.Collect$$libinit$$00000017          0x08000252   Section        0  libinit2.o(.ARM.Collect$$libinit$$00000017)
    .ARM.Collect$$libinit$$00000019          0x08000252   Section        0  libinit2.o(.ARM.Collect$$libinit$$00000019)
    .ARM.Collect$$libinit$$0000001B          0x08000252   Section        0  libinit2.o(.ARM.Collect$$libinit$$0000001B)
    .ARM.Collect$$libinit$$0000001D          0x08000252   Section        0  libinit2.o(.ARM.Collect$$libinit$$0000001D)
    .ARM.Collect$$libinit$$0000001F          0x08000252   Section        0  libinit2.o(.ARM.Collect$$libinit$$0000001F)
    .ARM.Collect$$libinit$$00000021          0x08000252   Section        0  libinit2.o(.ARM.Collect$$libinit$$00000021)
    .ARM.Collect$$libinit$$00000023          0x08000252   Section        0  libinit2.o(.ARM.Collect$$libinit$$00000023)
    .ARM.Collect$$libinit$$00000025          0x08000252   Section        0  libinit2.o(.ARM.Collect$$libinit$$00000025)
    .ARM.Collect$$libinit$$0000002C          0x08000252   Section        0  libinit2.o(.ARM.Collect$$libinit$$0000002C)
    .ARM.Collect$$libinit$$0000002E          0x08000252   Section        0  libinit2.o(.ARM.Collect$$libinit$$0000002E)
    .ARM.Collect$$libinit$$00000030          0x08000252   Section        0  libinit2.o(.ARM.Collect$$libinit$$00000030)
    .ARM.Collect$$libinit$$00000032          0x08000252   Section        0  libinit2.o(.ARM.Collect$$libinit$$00000032)
    .ARM.Collect$$libinit$$00000033          0x08000252   Section        2  libinit2.o(.ARM.Collect$$libinit$$00000033)
    .ARM.Collect$$libshutdown$$00000000      0x08000254   Section        2  libshutdown.o(.ARM.Collect$$libshutdown$$00000000)
    .ARM.Collect$$libshutdown$$00000002      0x08000256   Section        0  libshutdown2.o(.ARM.Collect$$libshutdown$$00000002)
    .ARM.Collect$$libshutdown$$00000004      0x08000256   Section        0  libshutdown2.o(.ARM.Collect$$libshutdown$$00000004)
    .ARM.Collect$$libshutdown$$00000007      0x08000256   Section        0  libshutdown2.o(.ARM.Collect$$libshutdown$$00000007)
    .ARM.Collect$$libshutdown$$0000000A      0x08000256   Section        0  libshutdown2.o(.ARM.Collect$$libshutdown$$0000000A)
    .ARM.Collect$$libshutdown$$0000000C      0x08000256   Section        0  libshutdown2.o(.ARM.Collect$$libshutdown$$0000000C)
    .ARM.Collect$$libshutdown$$0000000F      0x08000256   Section        0  libshutdown2.o(.ARM.Collect$$libshutdown$$0000000F)
    .ARM.Collect$$libshutdown$$00000010      0x08000256   Section        2  libshutdown2.o(.ARM.Collect$$libshutdown$$00000010)
    .ARM.Collect$$rtentry$$00000000          0x08000258   Section        0  __rtentry.o(.ARM.Collect$$rtentry$$00000000)
    .ARM.Collect$$rtentry$$00000002          0x08000258   Section        0  __rtentry2.o(.ARM.Collect$$rtentry$$00000002)
    .ARM.Collect$$rtentry$$00000004          0x08000258   Section        6  __rtentry4.o(.ARM.Collect$$rtentry$$00000004)
    .ARM.Collect$$rtentry$$00000009          0x0800025e   Section        0  __rtentry2.o(.ARM.Collect$$rtentry$$00000009)
    .ARM.Collect$$rtentry$$0000000A          0x0800025e   Section        4  __rtentry2.o(.ARM.Collect$$rtentry$$0000000A)
    .ARM.Collect$$rtentry$$0000000C          0x08000262   Section        0  __rtentry2.o(.ARM.Collect$$rtentry$$0000000C)
    .ARM.Collect$$rtentry$$0000000D          0x08000262   Section        8  __rtentry2.o(.ARM.Collect$$rtentry$$0000000D)
    .ARM.Collect$$rtexit$$00000000           0x0800026a   Section        2  rtexit.o(.ARM.Collect$$rtexit$$00000000)
    .ARM.Collect$$rtexit$$00000002           0x0800026c   Section        0  rtexit2.o(.ARM.Collect$$rtexit$$00000002)
    .ARM.Collect$$rtexit$$00000003           0x0800026c   Section        4  rtexit2.o(.ARM.Collect$$rtexit$$00000003)
    .ARM.Collect$$rtexit$$00000004           0x08000270   Section        6  rtexit2.o(.ARM.Collect$$rtexit$$00000004)
    .text                                    0x08000278   Section       64  startup_stm32f10x_hd.o(.text)
    .text                                    0x080002b8   Section        0  vsprintf.o(.text)
    .text                                    0x080002dc   Section        0  __2sprintf.o(.text)
    .text                                    0x08000308   Section        0  _printf_str.o(.text)
    .text                                    0x0800035c   Section        0  _printf_dec.o(.text)
    .text                                    0x080003d4   Section        0  __printf_flags_ss_wp.o(.text)
    .text                                    0x0800055c   Section        0  memcmp.o(.text)
    .text                                    0x080005b4   Section        0  strlen.o(.text)
    .text                                    0x080005f2   Section      138  rt_memcpy_v6.o(.text)
    .text                                    0x0800067c   Section      132  rt_memmove_v6.o(.text)
    .text                                    0x08000700   Section       16  aeabi_memset.o(.text)
    .text                                    0x08000710   Section       68  rt_memclr.o(.text)
    .text                                    0x08000754   Section       78  rt_memclr_w.o(.text)
    .text                                    0x080007a2   Section        0  heapauxi.o(.text)
    .text                                    0x080007a8   Section        0  _printf_pad.o(.text)
    .text                                    0x080007f6   Section        0  _printf_truncate.o(.text)
    .text                                    0x0800081a   Section        0  _printf_intcommon.o(.text)
    .text                                    0x080008cc   Section        0  _printf_charcount.o(.text)
    .text                                    0x080008f4   Section        0  _printf_char_common.o(.text)
    _printf_input_char                       0x080008f5   Thumb Code    10  _printf_char_common.o(.text)
    .text                                    0x08000924   Section        0  _sputc.o(.text)
    .text                                    0x0800092e   Section        0  _printf_char.o(.text)
    .text                                    0x0800095c   Section        0  _printf_wctomb.o(.text)
    .text                                    0x08000a18   Section        0  _printf_longlong_dec.o(.text)
    .text                                    0x08000a94   Section        0  _printf_oct_int_ll.o(.text)
    _printf_longlong_oct_internal            0x08000a95   Thumb Code     0  _printf_oct_int_ll.o(.text)
    .text                                    0x08000b04   Section        0  _printf_hex_int_ll_ptr.o(.text)
    _printf_hex_common                       0x08000b05   Thumb Code     0  _printf_hex_int_ll_ptr.o(.text)
    .text                                    0x08000b98   Section      100  rt_memcpy_w.o(.text)
    .text                                    0x08000bfc   Section      122  rt_memmove_w.o(.text)
    .text                                    0x08000c76   Section      138  lludiv10.o(.text)
    .text                                    0x08000d00   Section        0  _printf_fp_dec.o(.text)
    _fp_digits                               0x08000d03   Thumb Code   432  _printf_fp_dec.o(.text)
    .text                                    0x08001120   Section        0  _printf_fp_hex.o(.text)
    .text                                    0x0800141c   Section        0  _printf_wchar.o(.text)
    .text                                    0x08001448   Section        0  _wcrtomb.o(.text)
    .text                                    0x08001488   Section       74  sys_stackheap_outer.o(.text)
    .text                                    0x080014d4   Section       16  rt_ctype_table.o(.text)
    .text                                    0x080014e4   Section        8  rt_locale_intlibspace.o(.text)
    .text                                    0x080014ec   Section        0  _printf_fp_infnan.o(.text)
    .text                                    0x0800156c   Section        0  bigflt0.o(.text)
    .text                                    0x08001650   Section        0  exit.o(.text)
    .text                                    0x08001664   Section        8  libspace.o(.text)
    .text                                    0x0800166c   Section      128  strcmpv7m.o(.text)
    .text                                    0x080016ec   Section        0  sys_exit.o(.text)
    .text                                    0x080016f8   Section        2  use_no_semi.o(.text)
    .text                                    0x080016fa   Section        0  indicate_semi.o(.text)
    CL$$btod_d2e                             0x080016fa   Section       62  btod.o(CL$$btod_d2e)
    CL$$btod_d2e_denorm_low                  0x08001738   Section       70  btod.o(CL$$btod_d2e_denorm_low)
    CL$$btod_d2e_norm_op1                    0x0800177e   Section       96  btod.o(CL$$btod_d2e_norm_op1)
    CL$$btod_div_common                      0x080017de   Section      824  btod.o(CL$$btod_div_common)
    CL$$btod_e2e                             0x08001b16   Section      220  btod.o(CL$$btod_e2e)
    CL$$btod_ediv                            0x08001bf2   Section       42  btod.o(CL$$btod_ediv)
    CL$$btod_emul                            0x08001c1c   Section       42  btod.o(CL$$btod_emul)
    CL$$btod_mult_common                     0x08001c46   Section      580  btod.o(CL$$btod_mult_common)
    i.BusFault_Handler                       0x08001e8a   Section        0  stm32f10x_it.o(i.BusFault_Handler)
    i.Config_Backup                          0x08001e90   Section        0  config.o(i.Config_Backup)
    i.Config_Loop                            0x08001eec   Section        0  config.o(i.Config_Loop)
    i.Config_Read                            0x08001f3c   Section        0  config.o(i.Config_Read)
    Config_Read                              0x08001f3d   Thumb Code    30  config.o(i.Config_Read)
    i.Config_Write                           0x08001f60   Section        0  config.o(i.Config_Write)
    Config_Write                             0x08001f61   Thumb Code   148  config.o(i.Config_Write)
    i.DebugMon_Handler                       0x08002000   Section        0  stm32f10x_it.o(i.DebugMon_Handler)
    i.FLASH_ErasePage                        0x08002004   Section        0  stm32f10x_flash.o(i.FLASH_ErasePage)
    i.FLASH_GetBank1Status                   0x08002050   Section        0  stm32f10x_flash.o(i.FLASH_GetBank1Status)
    i.FLASH_Lock                             0x08002084   Section        0  stm32f10x_flash.o(i.FLASH_Lock)
    i.FLASH_ProgramHalfWord                  0x08002098   Section        0  stm32f10x_flash.o(i.FLASH_ProgramHalfWord)
    i.FLASH_Unlock                           0x080020d8   Section        0  stm32f10x_flash.o(i.FLASH_Unlock)
    i.FLASH_WaitForLastOperation             0x080020f0   Section        0  stm32f10x_flash.o(i.FLASH_WaitForLastOperation)
    i.GPIO_Init                              0x08002116   Section        0  stm32f10x_gpio.o(i.GPIO_Init)
    i.GPIO_ResetBits                         0x0800222c   Section        0  stm32f10x_gpio.o(i.GPIO_ResetBits)
    i.GPIO_SetBits                           0x08002230   Section        0  stm32f10x_gpio.o(i.GPIO_SetBits)
    i.Get_MillisecTimer_NBIOT_delay          0x08002234   Section        0  timer.o(i.Get_MillisecTimer_NBIOT_delay)
    i.Get_SysTick                            0x08002240   Section        0  timer.o(i.Get_SysTick)
    i.Get_SysmilliTick                       0x0800224c   Section        0  timer.o(i.Get_SysmilliTick)
    i.Get_login_success_flag                 0x08002258   Section        0  user_m5310.o(i.Get_login_success_flag)
    i.HardFault_Handler                      0x08002264   Section        0  stm32f10x_it.o(i.HardFault_Handler)
    i.MemManage_Handler                      0x0800226c   Section        0  stm32f10x_it.o(i.MemManage_Handler)
    i.NBIOT_AT_loop                          0x08002270   Section        0  user_m5310.o(i.NBIOT_AT_loop)
    NBIOT_AT_loop                            0x08002271   Thumb Code   490  user_m5310.o(i.NBIOT_AT_loop)
    i.NBIOT_Pipe_Reset                       0x08002648   Section        0  user_m5310.o(i.NBIOT_Pipe_Reset)
    i.NBIOT_Report_Data                      0x08002658   Section        0  user_m5310.o(i.NBIOT_Report_Data)
    NBIOT_Report_Data                        0x08002659   Thumb Code    96  user_m5310.o(i.NBIOT_Report_Data)
    i.NBIOT_Status_Reset                     0x080026f0   Section        0  user_m5310.o(i.NBIOT_Status_Reset)
    i.NBIOT_init                             0x0800275c   Section        0  user_m5310.o(i.NBIOT_init)
    i.NBIOT_loop                             0x08002798   Section        0  user_m5310.o(i.NBIOT_loop)
    NBIOT_loop                               0x08002799   Thumb Code   116  user_m5310.o(i.NBIOT_loop)
    i.NBIOT_normal_output                    0x08002844   Section        0  m5310_hard.o(i.NBIOT_normal_output)
    i.NBIOT_parse_AT_loop                    0x080028d0   Section        0  user_m5310.o(i.NBIOT_parse_AT_loop)
    NBIOT_parse_AT_loop                      0x080028d1   Thumb Code   194  user_m5310.o(i.NBIOT_parse_AT_loop)
    i.NBIOT_power_reset                      0x080029a4   Section        0  user_m5310.o(i.NBIOT_power_reset)
    NBIOT_power_reset                        0x080029a5   Thumb Code    12  user_m5310.o(i.NBIOT_power_reset)
    i.NBIOT_task                             0x080029b0   Section        0  user_m5310.o(i.NBIOT_task)
    i.NBIOT_updata_loop                      0x080029d8   Section        0  user_m5310.o(i.NBIOT_updata_loop)
    i.NMEA_Pow                               0x08002a64   Section        0  public.o(i.NMEA_Pow)
    i.NMEA_Str2num                           0x08002a8e   Section        0  public.o(i.NMEA_Str2num)
    i.NMI_Handler                            0x08002d28   Section        0  stm32f10x_it.o(i.NMI_Handler)
    i.NVIC_Configuration                     0x08002d2a   Section        0  sys.o(i.NVIC_Configuration)
    i.NVIC_Init                              0x08002d38   Section        0  misc.o(i.NVIC_Init)
    i.NVIC_PriorityGroupConfig               0x08002da8   Section        0  misc.o(i.NVIC_PriorityGroupConfig)
    i.Nbiot_AT_CGATT                         0x08002dbc   Section        0  user_m5310.o(i.Nbiot_AT_CGATT)
    Nbiot_AT_CGATT                           0x08002dbd   Thumb Code   118  user_m5310.o(i.Nbiot_AT_CGATT)
    i.Nbiot_AT_CGREG                         0x08002e60   Section        0  user_m5310.o(i.Nbiot_AT_CGREG)
    Nbiot_AT_CGREG                           0x08002e61   Thumb Code   198  user_m5310.o(i.Nbiot_AT_CGREG)
    i.Nbiot_AT_CGSN                          0x08002f50   Section        0  user_m5310.o(i.Nbiot_AT_CGSN)
    Nbiot_AT_CGSN                            0x08002f51   Thumb Code   110  user_m5310.o(i.Nbiot_AT_CGSN)
    i.Nbiot_AT_CIMI                          0x08002fe4   Section        0  user_m5310.o(i.Nbiot_AT_CIMI)
    Nbiot_AT_CIMI                            0x08002fe5   Thumb Code   110  user_m5310.o(i.Nbiot_AT_CIMI)
    i.Nbiot_AT_CSQ                           0x08003078   Section        0  user_m5310.o(i.Nbiot_AT_CSQ)
    Nbiot_AT_CSQ                             0x08003079   Thumb Code   240  user_m5310.o(i.Nbiot_AT_CSQ)
    i.Nbiot_AT_MIPLADDOBJ                    0x08003194   Section        0  user_m5310.o(i.Nbiot_AT_MIPLADDOBJ)
    Nbiot_AT_MIPLADDOBJ                      0x08003195   Thumb Code    46  user_m5310.o(i.Nbiot_AT_MIPLADDOBJ)
    i.Nbiot_AT_MIPLCLOSE                     0x080031d8   Section        0  user_m5310.o(i.Nbiot_AT_MIPLCLOSE)
    Nbiot_AT_MIPLCLOSE                       0x080031d9   Thumb Code    52  user_m5310.o(i.Nbiot_AT_MIPLCLOSE)
    i.Nbiot_AT_MIPLCREATE                    0x08003230   Section        0  user_m5310.o(i.Nbiot_AT_MIPLCREATE)
    Nbiot_AT_MIPLCREATE                      0x08003231   Thumb Code    98  user_m5310.o(i.Nbiot_AT_MIPLCREATE)
    i.Nbiot_AT_MIPLDEL                       0x080032b4   Section        0  user_m5310.o(i.Nbiot_AT_MIPLDEL)
    Nbiot_AT_MIPLDEL                         0x080032b5   Thumb Code    46  user_m5310.o(i.Nbiot_AT_MIPLDEL)
    i.Nbiot_AT_MIPLDELOBJ                    0x080032f8   Section        0  user_m5310.o(i.Nbiot_AT_MIPLDELOBJ)
    Nbiot_AT_MIPLDELOBJ                      0x080032f9   Thumb Code    46  user_m5310.o(i.Nbiot_AT_MIPLDELOBJ)
    i.Nbiot_AT_MIPLNOTIFY                    0x0800333c   Section        0  user_m5310.o(i.Nbiot_AT_MIPLNOTIFY)
    Nbiot_AT_MIPLNOTIFY                      0x0800333d   Thumb Code    46  user_m5310.o(i.Nbiot_AT_MIPLNOTIFY)
    i.Nbiot_AT_MIPLOPEN                      0x08003380   Section        0  user_m5310.o(i.Nbiot_AT_MIPLOPEN)
    Nbiot_AT_MIPLOPEN                        0x08003381   Thumb Code   158  user_m5310.o(i.Nbiot_AT_MIPLOPEN)
    i.Nbiot_AT_Reset                         0x08003460   Section        0  user_m5310.o(i.Nbiot_AT_Reset)
    Nbiot_AT_Reset                           0x08003461   Thumb Code     2  user_m5310.o(i.Nbiot_AT_Reset)
    i.Nbiot_AT_Test                          0x08003464   Section        0  user_m5310.o(i.Nbiot_AT_Test)
    Nbiot_AT_Test                            0x08003465   Thumb Code   102  user_m5310.o(i.Nbiot_AT_Test)
    i.PendSV_Handler                         0x080034f0   Section        0  stm32f10x_it.o(i.PendSV_Handler)
    i.Pipe1_Remove                           0x080034f2   Section        0  public.o(i.Pipe1_Remove)
    i.Pipe1_Reset                            0x08003524   Section        0  public.o(i.Pipe1_Reset)
    i.Pipe_Block_Input                       0x08003540   Section        0  public.o(i.Pipe_Block_Input)
    i.RCC_APB1PeriphClockCmd                 0x080035d4   Section        0  stm32f10x_rcc.o(i.RCC_APB1PeriphClockCmd)
    i.RCC_APB1PeriphResetCmd                 0x080035f4   Section        0  stm32f10x_rcc.o(i.RCC_APB1PeriphResetCmd)
    i.RCC_APB2PeriphClockCmd                 0x08003614   Section        0  stm32f10x_rcc.o(i.RCC_APB2PeriphClockCmd)
    i.RCC_APB2PeriphResetCmd                 0x08003634   Section        0  stm32f10x_rcc.o(i.RCC_APB2PeriphResetCmd)
    i.RCC_GetClocksFreq                      0x08003654   Section        0  stm32f10x_rcc.o(i.RCC_GetClocksFreq)
    i.STMFLASH_Read                          0x08003728   Section        0  stmflash.o(i.STMFLASH_Read)
    i.STMFLASH_ReadHalfWord                  0x08003778   Section        0  stmflash.o(i.STMFLASH_ReadHalfWord)
    i.STMFLASH_Write                         0x08003780   Section        0  stmflash.o(i.STMFLASH_Write)
    i.STMFLASH_Write_NoCheck                 0x080038f4   Section        0  stmflash.o(i.STMFLASH_Write_NoCheck)
    i.SVC_Handler                            0x0800391a   Section        0  stm32f10x_it.o(i.SVC_Handler)
    i.SetSysClock                            0x0800391c   Section        0  system_stm32f10x.o(i.SetSysClock)
    SetSysClock                              0x0800391d   Thumb Code     8  system_stm32f10x.o(i.SetSysClock)
    i.SetSysClockTo72                        0x08003924   Section        0  system_stm32f10x.o(i.SetSysClockTo72)
    SetSysClockTo72                          0x08003925   Thumb Code   214  system_stm32f10x.o(i.SetSysClockTo72)
    i.Set_MillisecTimer_NBIOT_delay          0x08003a04   Section        0  timer.o(i.Set_MillisecTimer_NBIOT_delay)
    i.SoftReset                              0x08003a10   Section        0  public.o(i.SoftReset)
    i.SoftTimer                              0x08003a38   Section        0  main.o(i.SoftTimer)
    SoftTimer                                0x08003a39   Thumb Code    38  main.o(i.SoftTimer)
    i.SysTick_CLKSourceConfig                0x08003a74   Section        0  misc.o(i.SysTick_CLKSourceConfig)
    i.SysTick_Handler                        0x08003a9c   Section        0  stm32f10x_it.o(i.SysTick_Handler)
    i.SystemInit                             0x08003aa0   Section        0  system_stm32f10x.o(i.SystemInit)
    i.TIM3_IRQHandler                        0x08003b00   Section        0  timer.o(i.TIM3_IRQHandler)
    i.TIM3_Int_Init                          0x08003b4c   Section        0  timer.o(i.TIM3_Int_Init)
    i.TIM4_IRQHandler                        0x08003bac   Section        0  timer.o(i.TIM4_IRQHandler)
    i.TIM4_Int_Init                          0x08003c10   Section        0  timer.o(i.TIM4_Int_Init)
    i.TIM_ClearITPendingBit                  0x08003c70   Section        0  stm32f10x_tim.o(i.TIM_ClearITPendingBit)
    i.TIM_Cmd                                0x08003c76   Section        0  stm32f10x_tim.o(i.TIM_Cmd)
    i.TIM_GetITStatus                        0x08003c8e   Section        0  stm32f10x_tim.o(i.TIM_GetITStatus)
    i.TIM_ITConfig                           0x08003cb0   Section        0  stm32f10x_tim.o(i.TIM_ITConfig)
    i.TIM_TimeBaseInit                       0x08003cc4   Section        0  stm32f10x_tim.o(i.TIM_TimeBaseInit)
    i.USART1_IRQHandler                      0x08003d68   Section        0  usart.o(i.USART1_IRQHandler)
    i.USART2_IRQHandler                      0x08003de8   Section        0  usart.o(i.USART2_IRQHandler)
    i.USART3_IRQHandler                      0x08003e24   Section        0  usart.o(i.USART3_IRQHandler)
    i.USART_Cmd                              0x08003ea4   Section        0  stm32f10x_usart.o(i.USART_Cmd)
    i.USART_DeInit                           0x08003ebc   Section        0  stm32f10x_usart.o(i.USART_DeInit)
    i.USART_GetFlagStatus                    0x08003f58   Section        0  stm32f10x_usart.o(i.USART_GetFlagStatus)
    i.USART_GetITStatus                      0x08003f72   Section        0  stm32f10x_usart.o(i.USART_GetITStatus)
    i.USART_ITConfig                         0x08003fc6   Section        0  stm32f10x_usart.o(i.USART_ITConfig)
    i.USART_Init                             0x08004010   Section        0  stm32f10x_usart.o(i.USART_Init)
    i.USART_ReceiveData                      0x080040e8   Section        0  stm32f10x_usart.o(i.USART_ReceiveData)
    i.USART_SendData                         0x080040f2   Section        0  stm32f10x_usart.o(i.USART_SendData)
    i.UsageFault_Handler                     0x080040fa   Section        0  stm32f10x_it.o(i.UsageFault_Handler)
    i.__ARM_fpclassify                       0x080040fe   Section        0  fpclassify.o(i.__ARM_fpclassify)
    i._is_digit                              0x08004126   Section        0  __printf_wp.o(i._is_digit)
    i.chip_read_flash                        0x08004134   Section        0  chip_flash.o(i.chip_read_flash)
    i.chip_write_flash                       0x08004160   Section        0  chip_flash.o(i.chip_write_flash)
    i.delay_init                             0x0800418c   Section        0  delay.o(i.delay_init)
    i.main                                   0x080041d0   Section        0  main.o(i.main)
    i.my_memmem                              0x08004206   Section        0  common.o(i.my_memmem)
    i.nbiot_power_init                       0x08004254   Section        0  nbiot_power.o(i.nbiot_power_init)
    i.nbiot_power_loop                       0x0800428c   Section        0  nbiot_power.o(i.nbiot_power_loop)
    i.nbiot_power_off                        0x080042c0   Section        0  nbiot_power.o(i.nbiot_power_off)
    i.nbiot_power_on                         0x080042dc   Section        0  nbiot_power.o(i.nbiot_power_on)
    i.nbiot_power_reset                      0x080042f8   Section        0  nbiot_power.o(i.nbiot_power_reset)
    i.reset_uart_pipe1                       0x08004314   Section        0  usart.o(i.reset_uart_pipe1)
    i.reset_uart_pipe2                       0x08004328   Section        0  usart.o(i.reset_uart_pipe2)
    i.reset_uart_pipe3                       0x08004340   Section        0  usart.o(i.reset_uart_pipe3)
    i.uart1_init                             0x08004360   Section        0  usart.o(i.uart1_init)
    i.uart1_output                           0x0800440c   Section        0  usart.o(i.uart1_output)
    i.uart1_printf                           0x08004440   Section        0  usart.o(i.uart1_printf)
    i.uart2_init                             0x0800448c   Section        0  usart.o(i.uart2_init)
    i.uart2_output                           0x08004538   Section        0  usart.o(i.uart2_output)
    i.uart2_printf                           0x0800456c   Section        0  usart.o(i.uart2_printf)
    i.uart3_init                             0x080045b8   Section        0  usart.o(i.uart3_init)
    i.uart_init                              0x08004668   Section        0  usart.o(i.uart_init)
    i.user_led_init                          0x080046a0   Section        0  led.o(i.user_led_init)
    i.user_led_loop                          0x08004710   Section        0  led.o(i.user_led_loop)
    user_led_loop                            0x08004711   Thumb Code    70  led.o(i.user_led_loop)
    i.user_led_milliloop                     0x08004764   Section        0  led.o(i.user_led_milliloop)
    user_led_milliloop                       0x08004765   Thumb Code    46  led.o(i.user_led_milliloop)
    i.user_led_task                          0x0800479c   Section        0  led.o(i.user_led_task)
    locale$$code                             0x080047a8   Section       44  lc_numeric_c.o(locale$$code)
    locale$$code                             0x080047d4   Section       44  lc_ctype_c.o(locale$$code)
    x$fpl$printf1                            0x08004800   Section        4  printf1.o(x$fpl$printf1)
    x$fpl$printf2                            0x08004804   Section        4  printf2.o(x$fpl$printf2)
    .constdata                               0x08004808   Section       17  __printf_flags_ss_wp.o(.constdata)
    x$fpl$usenofp                            0x08004808   Section        0  usenofp.o(x$fpl$usenofp)
    maptable                                 0x08004808   Data          17  __printf_flags_ss_wp.o(.constdata)
    .constdata                               0x0800481c   Section        8  _printf_wctomb.o(.constdata)
    initial_mbstate                          0x0800481c   Data           8  _printf_wctomb.o(.constdata)
    .constdata                               0x08004824   Section       40  _printf_hex_int_ll_ptr.o(.constdata)
    uc_hextab                                0x08004824   Data          20  _printf_hex_int_ll_ptr.o(.constdata)
    lc_hextab                                0x08004838   Data          20  _printf_hex_int_ll_ptr.o(.constdata)
    .constdata                               0x0800484c   Section       38  _printf_fp_hex.o(.constdata)
    lc_hextab                                0x0800484c   Data          19  _printf_fp_hex.o(.constdata)
    uc_hextab                                0x0800485f   Data          19  _printf_fp_hex.o(.constdata)
    .constdata                               0x08004874   Section      148  bigflt0.o(.constdata)
    tenpwrs_x                                0x08004874   Data          60  bigflt0.o(.constdata)
    tenpwrs_i                                0x080048b0   Data          64  bigflt0.o(.constdata)
    .conststring                             0x08004908   Section      125  user_m5310.o(.conststring)
    locale$$data                             0x080049a8   Section       28  lc_numeric_c.o(locale$$data)
    __lcnum_c_name                           0x080049ac   Data           2  lc_numeric_c.o(locale$$data)
    __lcnum_c_start                          0x080049b4   Data           0  lc_numeric_c.o(locale$$data)
    __lcnum_c_point                          0x080049c0   Data           0  lc_numeric_c.o(locale$$data)
    __lcnum_c_thousands                      0x080049c2   Data           0  lc_numeric_c.o(locale$$data)
    __lcnum_c_grouping                       0x080049c3   Data           0  lc_numeric_c.o(locale$$data)
    locale$$data                             0x080049c4   Section      272  lc_ctype_c.o(locale$$data)
    __lcnum_c_end                            0x080049c4   Data           0  lc_numeric_c.o(locale$$data)
    __lcctype_c_name                         0x080049c8   Data           2  lc_ctype_c.o(locale$$data)
    __lcctype_c_start                        0x080049d0   Data           0  lc_ctype_c.o(locale$$data)
    __lcctype_c_end                          0x08004ad4   Data           0  lc_ctype_c.o(locale$$data)
    .data                                    0x20000000   Section       20  stm32f10x_rcc.o(.data)
    APBAHBPrescTable                         0x20000000   Data          16  stm32f10x_rcc.o(.data)
    ADCPrescTable                            0x20000010   Data           4  stm32f10x_rcc.o(.data)
    .data                                    0x20000014   Section        4  delay.o(.data)
    fac_us                                   0x20000014   Data           1  delay.o(.data)
    fac_ms                                   0x20000016   Data           2  delay.o(.data)
    .data                                    0x20000018   Section       12  led.o(.data)
    softimersec                              0x2000001c   Data           4  led.o(.data)
    softimersec                              0x20000020   Data           4  led.o(.data)
    .data                                    0x20000024   Section       28  timer.o(.data)
    .data                                    0x20000040   Section       32  usart.o(.data)
    .data                                    0x20000060   Section       16  m5310_hard.o(.data)
    .data                                    0x20000070   Section        9  nbiot_power.o(.data)
    .data                                    0x2000007c   Section        4  main.o(.data)
    _tick                                    0x2000007c   Data           4  main.o(.data)
    .data                                    0x20000080   Section       24  config.o(.data)
    bak_sec_tick                             0x20000094   Data           4  config.o(.data)
    .data                                    0x20000098   Section       20  system_stm32f10x.o(.data)
    .data                                    0x200000ac   Section       72  user_m5310.o(.data)
    error_cnt                                0x200000d8   Data           1  user_m5310.o(.data)
    get_info_flag                            0x200000d9   Data           1  user_m5310.o(.data)
    get_info_flag                            0x200000da   Data           1  user_m5310.o(.data)
    resendcnt                                0x200000db   Data           1  user_m5310.o(.data)
    Errcnt                                   0x200000dc   Data           4  user_m5310.o(.data)
    Errcnt                                   0x200000e0   Data           4  user_m5310.o(.data)
    errcnt                                   0x200000e4   Data           1  user_m5310.o(.data)
    errcnt                                   0x200000e5   Data           1  user_m5310.o(.data)
    bak_millisec_tick                        0x200000e8   Data           4  user_m5310.o(.data)
    timersec                                 0x200000ec   Data           4  user_m5310.o(.data)
    timersec                                 0x200000f0   Data           4  user_m5310.o(.data)
    .bss                                     0x200000f4   Section     4096  stmflash.o(.bss)
    .bss                                     0x200010f4   Section     2790  usart.o(.bss)
    .bss                                     0x20001bda   Section      300  m5310_hard.o(.bss)
    .bss                                     0x20001d06   Section      512  config.o(.bss)
    .bss                                     0x20001f06   Section     1024  public.o(.bss)
    .bss                                     0x20002306   Section       32  user_m5310.o(.bss)
    .bss                                     0x20002328   Section       96  libspace.o(.bss)
    HEAP                                     0x20002388   Section      512  startup_stm32f10x_hd.o(HEAP)
    Heap_Mem                                 0x20002388   Data         512  startup_stm32f10x_hd.o(HEAP)
    STACK                                    0x20002588   Section     1024  startup_stm32f10x_hd.o(STACK)
    Stack_Mem                                0x20002588   Data        1024  startup_stm32f10x_hd.o(STACK)
    __initial_sp                             0x20002988   Data           0  startup_stm32f10x_hd.o(STACK)

    Global Symbols

    Symbol Name                              Value     Ov Type        Size  Object(Section)

    BuildAttributes$$THM_ISAv4$P$D$K$B$S$PE$A:L22UL41UL21$X:L11$S22US41US21$IEEE1$IW$USESV6$~STKCKD$USESV7$~SHL$OTIME$ROPI$IEEEJ$EBA8$UX$STANDARDLIB$REQ8$PRES8$EABIv2 0x00000000   Number         0  anon$$obj.o ABSOLUTE
    __ARM_use_no_argv                        0x00000000   Number         0  main.o ABSOLUTE
    _printf_flags                            0x00000000   Number         0  printf_stubs.o ABSOLUTE
    _printf_return_value                     0x00000000   Number         0  printf_stubs.o ABSOLUTE
    _printf_sizespec                         0x00000000   Number         0  printf_stubs.o ABSOLUTE
    _printf_widthprec                        0x00000000   Number         0  printf_stubs.o ABSOLUTE
    __ARM_exceptions_init                     - Undefined Weak Reference
    __alloca_initialize                       - Undefined Weak Reference
    __arm_preinit_                            - Undefined Weak Reference
    __cpp_initialize__aeabi_                  - Undefined Weak Reference
    __cxa_finalize                            - Undefined Weak Reference
    __sigvec_lookup                           - Undefined Weak Reference
    _atexit_init                              - Undefined Weak Reference
    _call_atexit_fns                          - Undefined Weak Reference
    _clock_init                               - Undefined Weak Reference
    _fp_trap_init                             - Undefined Weak Reference
    _fp_trap_shutdown                         - Undefined Weak Reference
    _get_lc_collate                           - Undefined Weak Reference
    _get_lc_monetary                          - Undefined Weak Reference
    _get_lc_time                              - Undefined Weak Reference
    _getenv_init                              - Undefined Weak Reference
    _handle_redirection                       - Undefined Weak Reference
    _init_alloc                               - Undefined Weak Reference
    _init_user_alloc                          - Undefined Weak Reference
    _initio                                   - Undefined Weak Reference
    _printf_mbtowc                            - Undefined Weak Reference
    _printf_wc                                - Undefined Weak Reference
    _rand_init                                - Undefined Weak Reference
    _signal_finish                            - Undefined Weak Reference
    _signal_init                              - Undefined Weak Reference
    _terminate_alloc                          - Undefined Weak Reference
    _terminate_user_alloc                     - Undefined Weak Reference
    _terminateio                              - Undefined Weak Reference
    __Vectors_Size                           0x00000130   Number         0  startup_stm32f10x_hd.o ABSOLUTE
    __Vectors                                0x08000000   Data           4  startup_stm32f10x_hd.o(RESET)
    __Vectors_End                            0x08000130   Data           0  startup_stm32f10x_hd.o(RESET)
    __main                                   0x08000131   Thumb Code     8  __main.o(!!!main)
    __scatterload                            0x08000139   Thumb Code     0  __scatter.o(!!!scatter)
    __scatterload_rt2                        0x08000139   Thumb Code    44  __scatter.o(!!!scatter)
    __scatterload_rt2_thumb_only             0x08000139   Thumb Code     0  __scatter.o(!!!scatter)
    __scatterload_null                       0x08000147   Thumb Code     0  __scatter.o(!!!scatter)
    __scatterload_copy                       0x0800016d   Thumb Code    26  __scatter_copy.o(!!handler_copy)
    __scatterload_zeroinit                   0x08000189   Thumb Code    28  __scatter_zi.o(!!handler_zi)
    _printf_n                                0x080001a5   Thumb Code     0  _printf_n.o(.ARM.Collect$$_printf_percent$$00000001)
    _printf_percent                          0x080001a5   Thumb Code     0  _printf_percent.o(.ARM.Collect$$_printf_percent$$00000000)
    _printf_p                                0x080001ab   Thumb Code     0  _printf_p.o(.ARM.Collect$$_printf_percent$$00000002)
    _printf_f                                0x080001b1   Thumb Code     0  _printf_f.o(.ARM.Collect$$_printf_percent$$00000003)
    _printf_e                                0x080001b7   Thumb Code     0  _printf_e.o(.ARM.Collect$$_printf_percent$$00000004)
    _printf_g                                0x080001bd   Thumb Code     0  _printf_g.o(.ARM.Collect$$_printf_percent$$00000005)
    _printf_a                                0x080001c3   Thumb Code     0  _printf_a.o(.ARM.Collect$$_printf_percent$$00000006)
    _printf_ll                               0x080001c9   Thumb Code     0  _printf_ll.o(.ARM.Collect$$_printf_percent$$00000007)
    _printf_i                                0x080001d3   Thumb Code     0  _printf_i.o(.ARM.Collect$$_printf_percent$$00000008)
    _printf_d                                0x080001d9   Thumb Code     0  _printf_d.o(.ARM.Collect$$_printf_percent$$00000009)
    _printf_u                                0x080001df   Thumb Code     0  _printf_u.o(.ARM.Collect$$_printf_percent$$0000000A)
    _printf_o                                0x080001e5   Thumb Code     0  _printf_o.o(.ARM.Collect$$_printf_percent$$0000000B)
    _printf_x                                0x080001eb   Thumb Code     0  _printf_x.o(.ARM.Collect$$_printf_percent$$0000000C)
    _printf_lli                              0x080001f1   Thumb Code     0  _printf_lli.o(.ARM.Collect$$_printf_percent$$0000000D)
    _printf_lld                              0x080001f7   Thumb Code     0  _printf_lld.o(.ARM.Collect$$_printf_percent$$0000000E)
    _printf_llu                              0x080001fd   Thumb Code     0  _printf_llu.o(.ARM.Collect$$_printf_percent$$0000000F)
    _printf_llo                              0x08000203   Thumb Code     0  _printf_llo.o(.ARM.Collect$$_printf_percent$$00000010)
    _printf_llx                              0x08000209   Thumb Code     0  _printf_llx.o(.ARM.Collect$$_printf_percent$$00000011)
    _printf_l                                0x0800020f   Thumb Code     0  _printf_l.o(.ARM.Collect$$_printf_percent$$00000012)
    _printf_c                                0x08000219   Thumb Code     0  _printf_c.o(.ARM.Collect$$_printf_percent$$00000013)
    _printf_s                                0x0800021f   Thumb Code     0  _printf_s.o(.ARM.Collect$$_printf_percent$$00000014)
    _printf_lc                               0x08000225   Thumb Code     0  _printf_lc.o(.ARM.Collect$$_printf_percent$$00000015)
    _printf_ls                               0x0800022b   Thumb Code     0  _printf_ls.o(.ARM.Collect$$_printf_percent$$00000016)
    _printf_percent_end                      0x08000231   Thumb Code     0  _printf_percent_end.o(.ARM.Collect$$_printf_percent$$00000017)
    __rt_lib_init                            0x08000235   Thumb Code     0  libinit.o(.ARM.Collect$$libinit$$00000000)
    __rt_lib_init_fp_1                       0x08000237   Thumb Code     0  libinit2.o(.ARM.Collect$$libinit$$00000002)
    __rt_lib_init_heap_1                     0x08000237   Thumb Code     0  libinit2.o(.ARM.Collect$$libinit$$0000000A)
    __rt_lib_init_lc_common                  0x08000237   Thumb Code     0  libinit2.o(.ARM.Collect$$libinit$$0000000F)
    __rt_lib_init_preinit_1                  0x08000237   Thumb Code     0  libinit2.o(.ARM.Collect$$libinit$$00000004)
    __rt_lib_init_rand_1                     0x08000237   Thumb Code     0  libinit2.o(.ARM.Collect$$libinit$$0000000E)
    __rt_lib_init_user_alloc_1               0x08000237   Thumb Code     0  libinit2.o(.ARM.Collect$$libinit$$0000000C)
    __rt_lib_init_lc_collate_1               0x0800023d   Thumb Code     0  libinit2.o(.ARM.Collect$$libinit$$00000011)
    __rt_lib_init_lc_ctype_2                 0x0800023d   Thumb Code     0  libinit2.o(.ARM.Collect$$libinit$$00000012)
    __rt_lib_init_lc_ctype_1                 0x08000249   Thumb Code     0  libinit2.o(.ARM.Collect$$libinit$$00000013)
    __rt_lib_init_lc_monetary_1              0x08000249   Thumb Code     0  libinit2.o(.ARM.Collect$$libinit$$00000015)
    __rt_lib_init_lc_numeric_2               0x08000249   Thumb Code     0  libinit2.o(.ARM.Collect$$libinit$$00000016)
    __rt_lib_init_alloca_1                   0x08000253   Thumb Code     0  libinit2.o(.ARM.Collect$$libinit$$0000002E)
    __rt_lib_init_argv_1                     0x08000253   Thumb Code     0  libinit2.o(.ARM.Collect$$libinit$$0000002C)
    __rt_lib_init_atexit_1                   0x08000253   Thumb Code     0  libinit2.o(.ARM.Collect$$libinit$$0000001B)
    __rt_lib_init_clock_1                    0x08000253   Thumb Code     0  libinit2.o(.ARM.Collect$$libinit$$00000021)
    __rt_lib_init_cpp_1                      0x08000253   Thumb Code     0  libinit2.o(.ARM.Collect$$libinit$$00000032)
    __rt_lib_init_exceptions_1               0x08000253   Thumb Code     0  libinit2.o(.ARM.Collect$$libinit$$00000030)
    __rt_lib_init_fp_trap_1                  0x08000253   Thumb Code     0  libinit2.o(.ARM.Collect$$libinit$$0000001F)
    __rt_lib_init_getenv_1                   0x08000253   Thumb Code     0  libinit2.o(.ARM.Collect$$libinit$$00000023)
    __rt_lib_init_lc_numeric_1               0x08000253   Thumb Code     0  libinit2.o(.ARM.Collect$$libinit$$00000017)
    __rt_lib_init_lc_time_1                  0x08000253   Thumb Code     0  libinit2.o(.ARM.Collect$$libinit$$00000019)
    __rt_lib_init_return                     0x08000253   Thumb Code     0  libinit2.o(.ARM.Collect$$libinit$$00000033)
    __rt_lib_init_signal_1                   0x08000253   Thumb Code     0  libinit2.o(.ARM.Collect$$libinit$$0000001D)
    __rt_lib_init_stdio_1                    0x08000253   Thumb Code     0  libinit2.o(.ARM.Collect$$libinit$$00000025)
    __rt_lib_shutdown                        0x08000255   Thumb Code     0  libshutdown.o(.ARM.Collect$$libshutdown$$00000000)
    __rt_lib_shutdown_cpp_1                  0x08000257   Thumb Code     0  libshutdown2.o(.ARM.Collect$$libshutdown$$00000002)
    __rt_lib_shutdown_fp_trap_1              0x08000257   Thumb Code     0  libshutdown2.o(.ARM.Collect$$libshutdown$$00000007)
    __rt_lib_shutdown_heap_1                 0x08000257   Thumb Code     0  libshutdown2.o(.ARM.Collect$$libshutdown$$0000000F)
    __rt_lib_shutdown_return                 0x08000257   Thumb Code     0  libshutdown2.o(.ARM.Collect$$libshutdown$$00000010)
    __rt_lib_shutdown_signal_1               0x08000257   Thumb Code     0  libshutdown2.o(.ARM.Collect$$libshutdown$$0000000A)
    __rt_lib_shutdown_stdio_1                0x08000257   Thumb Code     0  libshutdown2.o(.ARM.Collect$$libshutdown$$00000004)
    __rt_lib_shutdown_user_alloc_1           0x08000257   Thumb Code     0  libshutdown2.o(.ARM.Collect$$libshutdown$$0000000C)
    __rt_entry                               0x08000259   Thumb Code     0  __rtentry.o(.ARM.Collect$$rtentry$$00000000)
    __rt_entry_presh_1                       0x08000259   Thumb Code     0  __rtentry2.o(.ARM.Collect$$rtentry$$00000002)
    __rt_entry_sh                            0x08000259   Thumb Code     0  __rtentry4.o(.ARM.Collect$$rtentry$$00000004)
    __rt_entry_li                            0x0800025f   Thumb Code     0  __rtentry2.o(.ARM.Collect$$rtentry$$0000000A)
    __rt_entry_postsh_1                      0x0800025f   Thumb Code     0  __rtentry2.o(.ARM.Collect$$rtentry$$00000009)
    __rt_entry_main                          0x08000263   Thumb Code     0  __rtentry2.o(.ARM.Collect$$rtentry$$0000000D)
    __rt_entry_postli_1                      0x08000263   Thumb Code     0  __rtentry2.o(.ARM.Collect$$rtentry$$0000000C)
    __rt_exit                                0x0800026b   Thumb Code     0  rtexit.o(.ARM.Collect$$rtexit$$00000000)
    __rt_exit_ls                             0x0800026d   Thumb Code     0  rtexit2.o(.ARM.Collect$$rtexit$$00000003)
    __rt_exit_prels_1                        0x0800026d   Thumb Code     0  rtexit2.o(.ARM.Collect$$rtexit$$00000002)
    __rt_exit_exit                           0x08000271   Thumb Code     0  rtexit2.o(.ARM.Collect$$rtexit$$00000004)
    Reset_Handler                            0x08000279   Thumb Code     8  startup_stm32f10x_hd.o(.text)
    ADC1_2_IRQHandler                        0x08000293   Thumb Code     0  startup_stm32f10x_hd.o(.text)
    ADC3_IRQHandler                          0x08000293   Thumb Code     0  startup_stm32f10x_hd.o(.text)
    CAN1_RX1_IRQHandler                      0x08000293   Thumb Code     0  startup_stm32f10x_hd.o(.text)
    CAN1_SCE_IRQHandler                      0x08000293   Thumb Code     0  startup_stm32f10x_hd.o(.text)
    DMA1_Channel1_IRQHandler                 0x08000293   Thumb Code     0  startup_stm32f10x_hd.o(.text)
    DMA1_Channel2_IRQHandler                 0x08000293   Thumb Code     0  startup_stm32f10x_hd.o(.text)
    DMA1_Channel3_IRQHandler                 0x08000293   Thumb Code     0  startup_stm32f10x_hd.o(.text)
    DMA1_Channel4_IRQHandler                 0x08000293   Thumb Code     0  startup_stm32f10x_hd.o(.text)
    DMA1_Channel5_IRQHandler                 0x08000293   Thumb Code     0  startup_stm32f10x_hd.o(.text)
    DMA1_Channel6_IRQHandler                 0x08000293   Thumb Code     0  startup_stm32f10x_hd.o(.text)
    DMA1_Channel7_IRQHandler                 0x08000293   Thumb Code     0  startup_stm32f10x_hd.o(.text)
    DMA2_Channel1_IRQHandler                 0x08000293   Thumb Code     0  startup_stm32f10x_hd.o(.text)
    DMA2_Channel2_IRQHandler                 0x08000293   Thumb Code     0  startup_stm32f10x_hd.o(.text)
    DMA2_Channel3_IRQHandler                 0x08000293   Thumb Code     0  startup_stm32f10x_hd.o(.text)
    DMA2_Channel4_5_IRQHandler               0x08000293   Thumb Code     0  startup_stm32f10x_hd.o(.text)
    EXTI0_IRQHandler                         0x08000293   Thumb Code     0  startup_stm32f10x_hd.o(.text)
    EXTI15_10_IRQHandler                     0x08000293   Thumb Code     0  startup_stm32f10x_hd.o(.text)
    EXTI1_IRQHandler                         0x08000293   Thumb Code     0  startup_stm32f10x_hd.o(.text)
    EXTI2_IRQHandler                         0x08000293   Thumb Code     0  startup_stm32f10x_hd.o(.text)
    EXTI3_IRQHandler                         0x08000293   Thumb Code     0  startup_stm32f10x_hd.o(.text)
    EXTI4_IRQHandler                         0x08000293   Thumb Code     0  startup_stm32f10x_hd.o(.text)
    EXTI9_5_IRQHandler                       0x08000293   Thumb Code     0  startup_stm32f10x_hd.o(.text)
    FLASH_IRQHandler                         0x08000293   Thumb Code     0  startup_stm32f10x_hd.o(.text)
    FSMC_IRQHandler                          0x08000293   Thumb Code     0  startup_stm32f10x_hd.o(.text)
    I2C1_ER_IRQHandler                       0x08000293   Thumb Code     0  startup_stm32f10x_hd.o(.text)
    I2C1_EV_IRQHandler                       0x08000293   Thumb Code     0  startup_stm32f10x_hd.o(.text)
    I2C2_ER_IRQHandler                       0x08000293   Thumb Code     0  startup_stm32f10x_hd.o(.text)
    I2C2_EV_IRQHandler                       0x08000293   Thumb Code     0  startup_stm32f10x_hd.o(.text)
    PVD_IRQHandler                           0x08000293   Thumb Code     0  startup_stm32f10x_hd.o(.text)
    RCC_IRQHandler                           0x08000293   Thumb Code     0  startup_stm32f10x_hd.o(.text)
    RTCAlarm_IRQHandler                      0x08000293   Thumb Code     0  startup_stm32f10x_hd.o(.text)
    RTC_IRQHandler                           0x08000293   Thumb Code     0  startup_stm32f10x_hd.o(.text)
    SDIO_IRQHandler                          0x08000293   Thumb Code     0  startup_stm32f10x_hd.o(.text)
    SPI1_IRQHandler                          0x08000293   Thumb Code     0  startup_stm32f10x_hd.o(.text)
    SPI2_IRQHandler                          0x08000293   Thumb Code     0  startup_stm32f10x_hd.o(.text)
    SPI3_IRQHandler                          0x08000293   Thumb Code     0  startup_stm32f10x_hd.o(.text)
    TAMPER_IRQHandler                        0x08000293   Thumb Code     0  startup_stm32f10x_hd.o(.text)
    TIM1_BRK_IRQHandler                      0x08000293   Thumb Code     0  startup_stm32f10x_hd.o(.text)
    TIM1_CC_IRQHandler                       0x08000293   Thumb Code     0  startup_stm32f10x_hd.o(.text)
    TIM1_TRG_COM_IRQHandler                  0x08000293   Thumb Code     0  startup_stm32f10x_hd.o(.text)
    TIM1_UP_IRQHandler                       0x08000293   Thumb Code     0  startup_stm32f10x_hd.o(.text)
    TIM2_IRQHandler                          0x08000293   Thumb Code     0  startup_stm32f10x_hd.o(.text)
    TIM5_IRQHandler                          0x08000293   Thumb Code     0  startup_stm32f10x_hd.o(.text)
    TIM6_IRQHandler                          0x08000293   Thumb Code     0  startup_stm32f10x_hd.o(.text)
    TIM7_IRQHandler                          0x08000293   Thumb Code     0  startup_stm32f10x_hd.o(.text)
    TIM8_BRK_IRQHandler                      0x08000293   Thumb Code     0  startup_stm32f10x_hd.o(.text)
    TIM8_CC_IRQHandler                       0x08000293   Thumb Code     0  startup_stm32f10x_hd.o(.text)
    TIM8_TRG_COM_IRQHandler                  0x08000293   Thumb Code     0  startup_stm32f10x_hd.o(.text)
    TIM8_UP_IRQHandler                       0x08000293   Thumb Code     0  startup_stm32f10x_hd.o(.text)
    UART4_IRQHandler                         0x08000293   Thumb Code     0  startup_stm32f10x_hd.o(.text)
    UART5_IRQHandler                         0x08000293   Thumb Code     0  startup_stm32f10x_hd.o(.text)
    USBWakeUp_IRQHandler                     0x08000293   Thumb Code     0  startup_stm32f10x_hd.o(.text)
    USB_HP_CAN1_TX_IRQHandler                0x08000293   Thumb Code     0  startup_stm32f10x_hd.o(.text)
    USB_LP_CAN1_RX0_IRQHandler               0x08000293   Thumb Code     0  startup_stm32f10x_hd.o(.text)
    WWDG_IRQHandler                          0x08000293   Thumb Code     0  startup_stm32f10x_hd.o(.text)
    __user_initial_stackheap                 0x08000295   Thumb Code     0  startup_stm32f10x_hd.o(.text)
    vsprintf                                 0x080002b9   Thumb Code    32  vsprintf.o(.text)
    __2sprintf                               0x080002dd   Thumb Code    38  __2sprintf.o(.text)
    _printf_str                              0x08000309   Thumb Code    82  _printf_str.o(.text)
    _printf_int_dec                          0x0800035d   Thumb Code   104  _printf_dec.o(.text)
    __printf                                 0x080003d5   Thumb Code   388  __printf_flags_ss_wp.o(.text)
    memcmp                                   0x0800055d   Thumb Code    88  memcmp.o(.text)
    strlen                                   0x080005b5   Thumb Code    62  strlen.o(.text)
    __aeabi_memcpy                           0x080005f3   Thumb Code     0  rt_memcpy_v6.o(.text)
    __rt_memcpy                              0x080005f3   Thumb Code   138  rt_memcpy_v6.o(.text)
    _memcpy_lastbytes                        0x08000659   Thumb Code     0  rt_memcpy_v6.o(.text)
    __aeabi_memmove                          0x0800067d   Thumb Code     0  rt_memmove_v6.o(.text)
    __rt_memmove                             0x0800067d   Thumb Code   132  rt_memmove_v6.o(.text)
    __memmove_lastfew                        0x080006dd   Thumb Code     0  rt_memmove_v6.o(.text)
    __aeabi_memset                           0x08000701   Thumb Code    16  aeabi_memset.o(.text)
    __aeabi_memclr                           0x08000711   Thumb Code     0  rt_memclr.o(.text)
    __rt_memclr                              0x08000711   Thumb Code    68  rt_memclr.o(.text)
    _memset                                  0x08000715   Thumb Code     0  rt_memclr.o(.text)
    __aeabi_memclr4                          0x08000755   Thumb Code     0  rt_memclr_w.o(.text)
    __aeabi_memclr8                          0x08000755   Thumb Code     0  rt_memclr_w.o(.text)
    __rt_memclr_w                            0x08000755   Thumb Code    78  rt_memclr_w.o(.text)
    _memset_w                                0x08000759   Thumb Code     0  rt_memclr_w.o(.text)
    __use_two_region_memory                  0x080007a3   Thumb Code     2  heapauxi.o(.text)
    __rt_heap_escrow$2region                 0x080007a5   Thumb Code     2  heapauxi.o(.text)
    __rt_heap_expand$2region                 0x080007a7   Thumb Code     2  heapauxi.o(.text)
    _printf_pre_padding                      0x080007a9   Thumb Code    44  _printf_pad.o(.text)
    _printf_post_padding                     0x080007d5   Thumb Code    34  _printf_pad.o(.text)
    _printf_truncate_signed                  0x080007f7   Thumb Code    18  _printf_truncate.o(.text)
    _printf_truncate_unsigned                0x08000809   Thumb Code    18  _printf_truncate.o(.text)
    _printf_int_common                       0x0800081b   Thumb Code   178  _printf_intcommon.o(.text)
    _printf_charcount                        0x080008cd   Thumb Code    40  _printf_charcount.o(.text)
    _printf_char_common                      0x080008ff   Thumb Code    32  _printf_char_common.o(.text)
    _sputc                                   0x08000925   Thumb Code    10  _sputc.o(.text)
    _printf_cs_common                        0x0800092f   Thumb Code    20  _printf_char.o(.text)
    _printf_char                             0x08000943   Thumb Code    16  _printf_char.o(.text)
    _printf_string                           0x08000953   Thumb Code     8  _printf_char.o(.text)
    _printf_wctomb                           0x0800095d   Thumb Code   182  _printf_wctomb.o(.text)
    _printf_longlong_dec                     0x08000a19   Thumb Code   108  _printf_longlong_dec.o(.text)
    _printf_longlong_oct                     0x08000a95   Thumb Code    66  _printf_oct_int_ll.o(.text)
    _printf_int_oct                          0x08000ad7   Thumb Code    24  _printf_oct_int_ll.o(.text)
    _printf_ll_oct                           0x08000aef   Thumb Code    12  _printf_oct_int_ll.o(.text)
    _printf_longlong_hex                     0x08000b05   Thumb Code    86  _printf_hex_int_ll_ptr.o(.text)
    _printf_int_hex                          0x08000b5b   Thumb Code    28  _printf_hex_int_ll_ptr.o(.text)
    _printf_ll_hex                           0x08000b77   Thumb Code    12  _printf_hex_int_ll_ptr.o(.text)
    _printf_hex_ptr                          0x08000b83   Thumb Code    18  _printf_hex_int_ll_ptr.o(.text)
    __aeabi_memcpy4                          0x08000b99   Thumb Code     0  rt_memcpy_w.o(.text)
    __aeabi_memcpy8                          0x08000b99   Thumb Code     0  rt_memcpy_w.o(.text)
    __rt_memcpy_w                            0x08000b99   Thumb Code   100  rt_memcpy_w.o(.text)
    _memcpy_lastbytes_aligned                0x08000be1   Thumb Code     0  rt_memcpy_w.o(.text)
    __aeabi_memmove4                         0x08000bfd   Thumb Code     0  rt_memmove_w.o(.text)
    __aeabi_memmove8                         0x08000bfd   Thumb Code     0  rt_memmove_w.o(.text)
    __rt_memmove_w                           0x08000bfd   Thumb Code   122  rt_memmove_w.o(.text)
    __memmove_aligned                        0x08000c23   Thumb Code     0  rt_memmove_w.o(.text)
    __memmove_lastfew_aligned                0x08000c5b   Thumb Code     0  rt_memmove_w.o(.text)
    _ll_udiv10                               0x08000c77   Thumb Code   138  lludiv10.o(.text)
    __lib_sel_fp_printf                      0x08000d01   Thumb Code     2  _printf_fp_dec.o(.text)
    _printf_fp_dec_real                      0x08000eb3   Thumb Code   620  _printf_fp_dec.o(.text)
    _printf_fp_hex_real                      0x08001121   Thumb Code   756  _printf_fp_hex.o(.text)
    _printf_lcs_common                       0x0800141d   Thumb Code    20  _printf_wchar.o(.text)
    _printf_wchar                            0x08001431   Thumb Code    16  _printf_wchar.o(.text)
    _printf_wstring                          0x08001441   Thumb Code     8  _printf_wchar.o(.text)
    _wcrtomb                                 0x08001449   Thumb Code    64  _wcrtomb.o(.text)
    __user_setup_stackheap                   0x08001489   Thumb Code    74  sys_stackheap_outer.o(.text)
    __rt_ctype_table                         0x080014d5   Thumb Code    16  rt_ctype_table.o(.text)
    __rt_locale                              0x080014e5   Thumb Code     8  rt_locale_intlibspace.o(.text)
    _printf_fp_infnan                        0x080014ed   Thumb Code   112  _printf_fp_infnan.o(.text)
    _btod_etento                             0x0800156d   Thumb Code   224  bigflt0.o(.text)
    exit                                     0x08001651   Thumb Code    18  exit.o(.text)
    __user_libspace                          0x08001665   Thumb Code     8  libspace.o(.text)
    __user_perproc_libspace                  0x08001665   Thumb Code     0  libspace.o(.text)
    __user_perthread_libspace                0x08001665   Thumb Code     0  libspace.o(.text)
    strcmp                                   0x0800166d   Thumb Code   128  strcmpv7m.o(.text)
    _sys_exit                                0x080016ed   Thumb Code     8  sys_exit.o(.text)
    __I$use$semihosting                      0x080016f9   Thumb Code     0  use_no_semi.o(.text)
    __use_no_semihosting_swi                 0x080016f9   Thumb Code     2  use_no_semi.o(.text)
    __semihosting_library_function           0x080016fb   Thumb Code     0  indicate_semi.o(.text)
    _btod_d2e                                0x080016fb   Thumb Code    62  btod.o(CL$$btod_d2e)
    _d2e_denorm_low                          0x08001739   Thumb Code    70  btod.o(CL$$btod_d2e_denorm_low)
    _d2e_norm_op1                            0x0800177f   Thumb Code    96  btod.o(CL$$btod_d2e_norm_op1)
    __btod_div_common                        0x080017df   Thumb Code   696  btod.o(CL$$btod_div_common)
    _e2e                                     0x08001b17   Thumb Code   220  btod.o(CL$$btod_e2e)
    _btod_ediv                               0x08001bf3   Thumb Code    42  btod.o(CL$$btod_ediv)
    _btod_emul                               0x08001c1d   Thumb Code    42  btod.o(CL$$btod_emul)
    __btod_mult_common                       0x08001c47   Thumb Code   580  btod.o(CL$$btod_mult_common)
    BusFault_Handler                         0x08001e8b   Thumb Code     4  stm32f10x_it.o(i.BusFault_Handler)
    Config_Backup                            0x08001e91   Thumb Code    72  config.o(i.Config_Backup)
    Config_Loop                              0x08001eed   Thumb Code    66  config.o(i.Config_Loop)
    DebugMon_Handler                         0x08002001   Thumb Code     2  stm32f10x_it.o(i.DebugMon_Handler)
    FLASH_ErasePage                          0x08002005   Thumb Code    72  stm32f10x_flash.o(i.FLASH_ErasePage)
    FLASH_GetBank1Status                     0x08002051   Thumb Code    48  stm32f10x_flash.o(i.FLASH_GetBank1Status)
    FLASH_Lock                               0x08002085   Thumb Code    14  stm32f10x_flash.o(i.FLASH_Lock)
    FLASH_ProgramHalfWord                    0x08002099   Thumb Code    60  stm32f10x_flash.o(i.FLASH_ProgramHalfWord)
    FLASH_Unlock                             0x080020d9   Thumb Code    12  stm32f10x_flash.o(i.FLASH_Unlock)
    FLASH_WaitForLastOperation               0x080020f1   Thumb Code    38  stm32f10x_flash.o(i.FLASH_WaitForLastOperation)
    GPIO_Init                                0x08002117   Thumb Code   278  stm32f10x_gpio.o(i.GPIO_Init)
    GPIO_ResetBits                           0x0800222d   Thumb Code     4  stm32f10x_gpio.o(i.GPIO_ResetBits)
    GPIO_SetBits                             0x08002231   Thumb Code     4  stm32f10x_gpio.o(i.GPIO_SetBits)
    Get_MillisecTimer_NBIOT_delay            0x08002235   Thumb Code     6  timer.o(i.Get_MillisecTimer_NBIOT_delay)
    Get_SysTick                              0x08002241   Thumb Code     6  timer.o(i.Get_SysTick)
    Get_SysmilliTick                         0x0800224d   Thumb Code     6  timer.o(i.Get_SysmilliTick)
    Get_login_success_flag                   0x08002259   Thumb Code     6  user_m5310.o(i.Get_login_success_flag)
    HardFault_Handler                        0x08002265   Thumb Code     8  stm32f10x_it.o(i.HardFault_Handler)
    MemManage_Handler                        0x0800226d   Thumb Code     4  stm32f10x_it.o(i.MemManage_Handler)
    NBIOT_Pipe_Reset                         0x08002649   Thumb Code    12  user_m5310.o(i.NBIOT_Pipe_Reset)
    NBIOT_Status_Reset                       0x080026f1   Thumb Code    62  user_m5310.o(i.NBIOT_Status_Reset)
    NBIOT_init                               0x0800275d   Thumb Code    42  user_m5310.o(i.NBIOT_init)
    NBIOT_normal_output                      0x08002845   Thumb Code   130  m5310_hard.o(i.NBIOT_normal_output)
    NBIOT_task                               0x080029b1   Thumb Code    34  user_m5310.o(i.NBIOT_task)
    NBIOT_updata_loop                        0x080029d9   Thumb Code   110  user_m5310.o(i.NBIOT_updata_loop)
    NMEA_Pow                                 0x08002a65   Thumb Code    42  public.o(i.NMEA_Pow)
    NMEA_Str2num                             0x08002a8f   Thumb Code   666  public.o(i.NMEA_Str2num)
    NMI_Handler                              0x08002d29   Thumb Code     2  stm32f10x_it.o(i.NMI_Handler)
    NVIC_Configuration                       0x08002d2b   Thumb Code    12  sys.o(i.NVIC_Configuration)
    NVIC_Init                                0x08002d39   Thumb Code   100  misc.o(i.NVIC_Init)
    NVIC_PriorityGroupConfig                 0x08002da9   Thumb Code    10  misc.o(i.NVIC_PriorityGroupConfig)
    PendSV_Handler                           0x080034f1   Thumb Code     2  stm32f10x_it.o(i.PendSV_Handler)
    Pipe1_Remove                             0x080034f3   Thumb Code    50  public.o(i.Pipe1_Remove)
    Pipe1_Reset                              0x08003525   Thumb Code    28  public.o(i.Pipe1_Reset)
    Pipe_Block_Input                         0x08003541   Thumb Code   146  public.o(i.Pipe_Block_Input)
    RCC_APB1PeriphClockCmd                   0x080035d5   Thumb Code    26  stm32f10x_rcc.o(i.RCC_APB1PeriphClockCmd)
    RCC_APB1PeriphResetCmd                   0x080035f5   Thumb Code    26  stm32f10x_rcc.o(i.RCC_APB1PeriphResetCmd)
    RCC_APB2PeriphClockCmd                   0x08003615   Thumb Code    26  stm32f10x_rcc.o(i.RCC_APB2PeriphClockCmd)
    RCC_APB2PeriphResetCmd                   0x08003635   Thumb Code    26  stm32f10x_rcc.o(i.RCC_APB2PeriphResetCmd)
    RCC_GetClocksFreq                        0x08003655   Thumb Code   192  stm32f10x_rcc.o(i.RCC_GetClocksFreq)
    STMFLASH_Read                            0x08003729   Thumb Code    80  stmflash.o(i.STMFLASH_Read)
    STMFLASH_ReadHalfWord                    0x08003779   Thumb Code     6  stmflash.o(i.STMFLASH_ReadHalfWord)
    STMFLASH_Write                           0x08003781   Thumb Code   362  stmflash.o(i.STMFLASH_Write)
    STMFLASH_Write_NoCheck                   0x080038f5   Thumb Code    38  stmflash.o(i.STMFLASH_Write_NoCheck)
    SVC_Handler                              0x0800391b   Thumb Code     2  stm32f10x_it.o(i.SVC_Handler)
    Set_MillisecTimer_NBIOT_delay            0x08003a05   Thumb Code     6  timer.o(i.Set_MillisecTimer_NBIOT_delay)
    SoftReset                                0x08003a11   Thumb Code    30  public.o(i.SoftReset)
    SysTick_CLKSourceConfig                  0x08003a75   Thumb Code    40  misc.o(i.SysTick_CLKSourceConfig)
    SysTick_Handler                          0x08003a9d   Thumb Code     2  stm32f10x_it.o(i.SysTick_Handler)
    SystemInit                               0x08003aa1   Thumb Code    78  system_stm32f10x.o(i.SystemInit)
    TIM3_IRQHandler                          0x08003b01   Thumb Code    54  timer.o(i.TIM3_IRQHandler)
    TIM3_Int_Init                            0x08003b4d   Thumb Code    90  timer.o(i.TIM3_Int_Init)
    TIM4_IRQHandler                          0x08003bad   Thumb Code    80  timer.o(i.TIM4_IRQHandler)
    TIM4_Int_Init                            0x08003c11   Thumb Code    90  timer.o(i.TIM4_Int_Init)
    TIM_ClearITPendingBit                    0x08003c71   Thumb Code     6  stm32f10x_tim.o(i.TIM_ClearITPendingBit)
    TIM_Cmd                                  0x08003c77   Thumb Code    24  stm32f10x_tim.o(i.TIM_Cmd)
    TIM_GetITStatus                          0x08003c8f   Thumb Code    34  stm32f10x_tim.o(i.TIM_GetITStatus)
    TIM_ITConfig                             0x08003cb1   Thumb Code    18  stm32f10x_tim.o(i.TIM_ITConfig)
    TIM_TimeBaseInit                         0x08003cc5   Thumb Code   122  stm32f10x_tim.o(i.TIM_TimeBaseInit)
    USART1_IRQHandler                        0x08003d69   Thumb Code   118  usart.o(i.USART1_IRQHandler)
    USART2_IRQHandler                        0x08003de9   Thumb Code    46  usart.o(i.USART2_IRQHandler)
    USART3_IRQHandler                        0x08003e25   Thumb Code   118  usart.o(i.USART3_IRQHandler)
    USART_Cmd                                0x08003ea5   Thumb Code    24  stm32f10x_usart.o(i.USART_Cmd)
    USART_DeInit                             0x08003ebd   Thumb Code   134  stm32f10x_usart.o(i.USART_DeInit)
    USART_GetFlagStatus                      0x08003f59   Thumb Code    26  stm32f10x_usart.o(i.USART_GetFlagStatus)
    USART_GetITStatus                        0x08003f73   Thumb Code    84  stm32f10x_usart.o(i.USART_GetITStatus)
    USART_ITConfig                           0x08003fc7   Thumb Code    74  stm32f10x_usart.o(i.USART_ITConfig)
    USART_Init                               0x08004011   Thumb Code   210  stm32f10x_usart.o(i.USART_Init)
    USART_ReceiveData                        0x080040e9   Thumb Code    10  stm32f10x_usart.o(i.USART_ReceiveData)
    USART_SendData                           0x080040f3   Thumb Code     8  stm32f10x_usart.o(i.USART_SendData)
    UsageFault_Handler                       0x080040fb   Thumb Code     4  stm32f10x_it.o(i.UsageFault_Handler)
    __ARM_fpclassify                         0x080040ff   Thumb Code    40  fpclassify.o(i.__ARM_fpclassify)
    _is_digit                                0x08004127   Thumb Code    14  __printf_wp.o(i._is_digit)
    chip_read_flash                          0x08004135   Thumb Code    44  chip_flash.o(i.chip_read_flash)
    chip_write_flash                         0x08004161   Thumb Code    44  chip_flash.o(i.chip_write_flash)
    delay_init                               0x0800418d   Thumb Code    50  delay.o(i.delay_init)
    main                                     0x080041d1   Thumb Code    54  main.o(i.main)
    my_memmem                                0x08004207   Thumb Code    76  common.o(i.my_memmem)
    nbiot_power_init                         0x08004255   Thumb Code    52  nbiot_power.o(i.nbiot_power_init)
    nbiot_power_loop                         0x0800428d   Thumb Code    44  nbiot_power.o(i.nbiot_power_loop)
    nbiot_power_off                          0x080042c1   Thumb Code    20  nbiot_power.o(i.nbiot_power_off)
    nbiot_power_on                           0x080042dd   Thumb Code    20  nbiot_power.o(i.nbiot_power_on)
    nbiot_power_reset                        0x080042f9   Thumb Code    20  nbiot_power.o(i.nbiot_power_reset)
    reset_uart_pipe1                         0x08004315   Thumb Code    14  usart.o(i.reset_uart_pipe1)
    reset_uart_pipe2                         0x08004329   Thumb Code    16  usart.o(i.reset_uart_pipe2)
    reset_uart_pipe3                         0x08004341   Thumb Code    24  usart.o(i.reset_uart_pipe3)
    uart1_init                               0x08004361   Thumb Code   162  usart.o(i.uart1_init)
    uart1_output                             0x0800440d   Thumb Code    48  usart.o(i.uart1_output)
    uart1_printf                             0x08004441   Thumb Code    72  usart.o(i.uart1_printf)
    uart2_init                               0x0800448d   Thumb Code   164  usart.o(i.uart2_init)
    uart2_output                             0x08004539   Thumb Code    48  usart.o(i.uart2_output)
    uart2_printf                             0x0800456d   Thumb Code    72  usart.o(i.uart2_printf)
    uart3_init                               0x080045b9   Thumb Code   168  usart.o(i.uart3_init)
    uart_init                                0x08004669   Thumb Code    44  usart.o(i.uart_init)
    user_led_init                            0x080046a1   Thumb Code    94  led.o(i.user_led_init)
    user_led_task                            0x0800479d   Thumb Code    12  led.o(i.user_led_task)
    _get_lc_numeric                          0x080047a9   Thumb Code    44  lc_numeric_c.o(locale$$code)
    _get_lc_ctype                            0x080047d5   Thumb Code    44  lc_ctype_c.o(locale$$code)
    _printf_fp_dec                           0x08004801   Thumb Code     4  printf1.o(x$fpl$printf1)
    _printf_fp_hex                           0x08004805   Thumb Code     4  printf2.o(x$fpl$printf2)
    __I$use$fp                               0x08004808   Number         0  usenofp.o(x$fpl$usenofp)
    Region$$Table$$Base                      0x08004988   Number         0  anon$$obj.o(Region$$Table)
    Region$$Table$$Limit                     0x080049a8   Number         0  anon$$obj.o(Region$$Table)
    __ctype                                  0x080049d1   Data           0  lc_ctype_c.o(locale$$data)
    led_milliloop_delay                      0x20000018   Data           4  led.o(.data)
    millisec_tick                            0x20000024   Data           4  timer.o(.data)
    sec_tick                                 0x20000028   Data           4  timer.o(.data)
    Run_sec_tick                             0x2000002c   Data           4  timer.o(.data)
    rs485_delay_millisec                     0x20000030   Data           4  timer.o(.data)
    socket_delay_millisec                    0x20000034   Data           4  timer.o(.data)
    bluetooth_delay_millisec                 0x20000038   Data           4  timer.o(.data)
    sensor_rs485_delay_millisec              0x2000003c   Data           4  timer.o(.data)
    uart_pipe2                               0x20000040   Data          16  usart.o(.data)
    uart_pipe2_log                           0x20000050   Data          16  usart.o(.data)
    nbiot_send_pipe                          0x20000060   Data          16  m5310_hard.o(.data)
    nbiot_power_reset_event                  0x20000070   Data           1  nbiot_power.o(.data)
    nbiot_power_reset_delay                  0x20000074   Data           4  nbiot_power.o(.data)
    nbiot_power_enable                       0x20000078   Data           1  nbiot_power.o(.data)
    user_app_version                         0x20000080   Data           4  config.o(.data)
    user_app_length                          0x20000084   Data           4  config.o(.data)
    config_ischange                          0x20000088   Data           1  config.o(.data)
    config_delay                             0x20000089   Data           1  config.o(.data)
    backupms                                 0x2000008c   Data           4  config.o(.data)
    backupmsmax                              0x20000090   Data           4  config.o(.data)
    SystemCoreClock                          0x20000098   Data           4  system_stm32f10x.o(.data)
    AHBPrescTable                            0x2000009c   Data          16  system_stm32f10x.o(.data)
    nbiot_at_step                            0x200000ac   Data           1  user_m5310.o(.data)
    nbiot_recv_pipe                          0x200000b0   Data           4  user_m5310.o(.data)
    nbiot_run_timespan                       0x200000b4   Data           4  user_m5310.o(.data)
    nbiot_at_delay                           0x200000b8   Data           4  user_m5310.o(.data)
    nbiot_is_connected_countdown             0x200000bc   Data           4  user_m5310.o(.data)
    nbiot_signal_strenth_rssi                0x200000c0   Data           1  user_m5310.o(.data)
    nbiot_signal_strenth_ber                 0x200000c1   Data           1  user_m5310.o(.data)
    network_registration_status              0x200000c2   Data           1  user_m5310.o(.data)
    nbiot_logic_onenet_timeout               0x200000c3   Data           1  user_m5310.o(.data)
    nbiot_close_event                        0x200000c4   Data           1  user_m5310.o(.data)
    upload_data_cnt                          0x200000c5   Data           1  user_m5310.o(.data)
    nbiot_ref_id                             0x200000c6   Data           1  user_m5310.o(.data)
    nbiot_close_success_flag                 0x200000c7   Data           1  user_m5310.o(.data)
    nbiot_login_onenet_flag                  0x200000c8   Data           1  user_m5310.o(.data)
    nbiot_send_request                       0x200000c9   Data           1  user_m5310.o(.data)
    simiccidgetok                            0x200000ca   Data           1  user_m5310.o(.data)
    isTrueRunATLoop                          0x200000cb   Data           1  user_m5310.o(.data)
    nbiot_is_ready                           0x200000cc   Data           1  user_m5310.o(.data)
    NBIOT_login_onenet_event                 0x200000cd   Data           1  user_m5310.o(.data)
    dht11_data                               0x200000d0   Data           4  user_m5310.o(.data)
    nbiot_upload_loop_delay                  0x200000d4   Data           4  user_m5310.o(.data)
    STMFLASH_BUF                             0x200000f4   Data        2048  stmflash.o(.bss)
    STMFLASH_CMP                             0x200008f4   Data        2048  stmflash.o(.bss)
    uart_pipe1                               0x200010f4   Data         522  usart.o(.bss)
    USART2_RX_BUFER                          0x200012fe   Data        1024  usart.o(.bss)
    USART2_RX_LOG_BUFER                      0x200016fe   Data         200  usart.o(.bss)
    uart_pipe3                               0x200017c6   Data         522  usart.o(.bss)
    uart_send_pipe3                          0x200019d0   Data         522  usart.o(.bss)
    nbiot_SEND_PIPE_BUF                      0x20001bda   Data         300  m5310_hard.o(.bss)
    config_info                              0x20001d06   Data         256  config.o(.bss)
    config_compare                           0x20001e06   Data         256  config.o(.bss)
    _txBuffer                                0x20001f06   Data         512  public.o(.bss)
    PublicSendBuffer                         0x20002106   Data         512  public.o(.bss)
    simiccidstring                           0x20002306   Data          16  user_m5310.o(.bss)
    nbiotIMEIstring                          0x20002316   Data          16  user_m5310.o(.bss)
    __libspace_start                         0x20002328   Data          96  libspace.o(.bss)
    __temporary_stack_top$libspace           0x20002388   Data           0  libspace.o(.bss)



==============================================================================

Memory Map of the image

  Image Entry point : 0x08000131

  Load Region LR_IROM1 (Base: 0x08000000, Size: 0x00004bc8, Max: 0x00010000, ABSOLUTE)

    Execution Region ER_IROM1 (Exec base: 0x08000000, Load base: 0x08000000, Size: 0x00004ad4, Max: 0x00010000, ABSOLUTE)

    Exec Addr    Load Addr    Size         Type   Attr      Idx    E Section Name        Object

    0x08000000   0x08000000   0x00000130   Data   RO           19    RESET               startup_stm32f10x_hd.o
    0x08000130   0x08000130   0x00000008   Code   RO         3638  * !!!main             c_w.l(__main.o)
    0x08000138   0x08000138   0x00000034   Code   RO         3980    !!!scatter          c_w.l(__scatter.o)
    0x0800016c   0x0800016c   0x0000001a   Code   RO         3982    !!handler_copy      c_w.l(__scatter_copy.o)
    0x08000186   0x08000186   0x00000002   PAD
    0x08000188   0x08000188   0x0000001c   Code   RO         3984    !!handler_zi        c_w.l(__scatter_zi.o)
    0x080001a4   0x080001a4   0x00000000   Code   RO         3617    .ARM.Collect$$_printf_percent$$00000000  c_w.l(_printf_percent.o)
    0x080001a4   0x080001a4   0x00000006   Code   RO         3720    .ARM.Collect$$_printf_percent$$00000001  c_w.l(_printf_n.o)
    0x080001aa   0x080001aa   0x00000006   Code   RO         3722    .ARM.Collect$$_printf_percent$$00000002  c_w.l(_printf_p.o)
    0x080001b0   0x080001b0   0x00000006   Code   RO         3726    .ARM.Collect$$_printf_percent$$00000003  c_w.l(_printf_f.o)
    0x080001b6   0x080001b6   0x00000006   Code   RO         3727    .ARM.Collect$$_printf_percent$$00000004  c_w.l(_printf_e.o)
    0x080001bc   0x080001bc   0x00000006   Code   RO         3728    .ARM.Collect$$_printf_percent$$00000005  c_w.l(_printf_g.o)
    0x080001c2   0x080001c2   0x00000006   Code   RO         3729    .ARM.Collect$$_printf_percent$$00000006  c_w.l(_printf_a.o)
    0x080001c8   0x080001c8   0x0000000a   Code   RO         3734    .ARM.Collect$$_printf_percent$$00000007  c_w.l(_printf_ll.o)
    0x080001d2   0x080001d2   0x00000006   Code   RO         3724    .ARM.Collect$$_printf_percent$$00000008  c_w.l(_printf_i.o)
    0x080001d8   0x080001d8   0x00000006   Code   RO         3616    .ARM.Collect$$_printf_percent$$00000009  c_w.l(_printf_d.o)
    0x080001de   0x080001de   0x00000006   Code   RO         3725    .ARM.Collect$$_printf_percent$$0000000A  c_w.l(_printf_u.o)
    0x080001e4   0x080001e4   0x00000006   Code   RO         3723    .ARM.Collect$$_printf_percent$$0000000B  c_w.l(_printf_o.o)
    0x080001ea   0x080001ea   0x00000006   Code   RO         3721    .ARM.Collect$$_printf_percent$$0000000C  c_w.l(_printf_x.o)
    0x080001f0   0x080001f0   0x00000006   Code   RO         3731    .ARM.Collect$$_printf_percent$$0000000D  c_w.l(_printf_lli.o)
    0x080001f6   0x080001f6   0x00000006   Code   RO         3732    .ARM.Collect$$_printf_percent$$0000000E  c_w.l(_printf_lld.o)
    0x080001fc   0x080001fc   0x00000006   Code   RO         3733    .ARM.Collect$$_printf_percent$$0000000F  c_w.l(_printf_llu.o)
    0x08000202   0x08000202   0x00000006   Code   RO         3738    .ARM.Collect$$_printf_percent$$00000010  c_w.l(_printf_llo.o)
    0x08000208   0x08000208   0x00000006   Code   RO         3739    .ARM.Collect$$_printf_percent$$00000011  c_w.l(_printf_llx.o)
    0x0800020e   0x0800020e   0x0000000a   Code   RO         3735    .ARM.Collect$$_printf_percent$$00000012  c_w.l(_printf_l.o)
    0x08000218   0x08000218   0x00000006   Code   RO         3719    .ARM.Collect$$_printf_percent$$00000013  c_w.l(_printf_c.o)
    0x0800021e   0x0800021e   0x00000006   Code   RO         3615    .ARM.Collect$$_printf_percent$$00000014  c_w.l(_printf_s.o)
    0x08000224   0x08000224   0x00000006   Code   RO         3736    .ARM.Collect$$_printf_percent$$00000015  c_w.l(_printf_lc.o)
    0x0800022a   0x0800022a   0x00000006   Code   RO         3737    .ARM.Collect$$_printf_percent$$00000016  c_w.l(_printf_ls.o)
    0x08000230   0x08000230   0x00000004   Code   RO         3730    .ARM.Collect$$_printf_percent$$00000017  c_w.l(_printf_percent_end.o)
    0x08000234   0x08000234   0x00000002   Code   RO         3841    .ARM.Collect$$libinit$$00000000  c_w.l(libinit.o)
    0x08000236   0x08000236   0x00000000   Code   RO         3863    .ARM.Collect$$libinit$$00000002  c_w.l(libinit2.o)
    0x08000236   0x08000236   0x00000000   Code   RO         3865    .ARM.Collect$$libinit$$00000004  c_w.l(libinit2.o)
    0x08000236   0x08000236   0x00000000   Code   RO         3868    .ARM.Collect$$libinit$$0000000A  c_w.l(libinit2.o)
    0x08000236   0x08000236   0x00000000   Code   RO         3870    .ARM.Collect$$libinit$$0000000C  c_w.l(libinit2.o)
    0x08000236   0x08000236   0x00000000   Code   RO         3872    .ARM.Collect$$libinit$$0000000E  c_w.l(libinit2.o)
    0x08000236   0x08000236   0x00000006   Code   RO         3873    .ARM.Collect$$libinit$$0000000F  c_w.l(libinit2.o)
    0x0800023c   0x0800023c   0x00000000   Code   RO         3875    .ARM.Collect$$libinit$$00000011  c_w.l(libinit2.o)
    0x0800023c   0x0800023c   0x0000000c   Code   RO         3876    .ARM.Collect$$libinit$$00000012  c_w.l(libinit2.o)
    0x08000248   0x08000248   0x00000000   Code   RO         3877    .ARM.Collect$$libinit$$00000013  c_w.l(libinit2.o)
    0x08000248   0x08000248   0x00000000   Code   RO         3879    .ARM.Collect$$libinit$$00000015  c_w.l(libinit2.o)
    0x08000248   0x08000248   0x0000000a   Code   RO         3880    .ARM.Collect$$libinit$$00000016  c_w.l(libinit2.o)
    0x08000252   0x08000252   0x00000000   Code   RO         3881    .ARM.Collect$$libinit$$00000017  c_w.l(libinit2.o)
    0x08000252   0x08000252   0x00000000   Code   RO         3883    .ARM.Collect$$libinit$$00000019  c_w.l(libinit2.o)
    0x08000252   0x08000252   0x00000000   Code   RO         3885    .ARM.Collect$$libinit$$0000001B  c_w.l(libinit2.o)
    0x08000252   0x08000252   0x00000000   Code   RO         3887    .ARM.Collect$$libinit$$0000001D  c_w.l(libinit2.o)
    0x08000252   0x08000252   0x00000000   Code   RO         3889    .ARM.Collect$$libinit$$0000001F  c_w.l(libinit2.o)
    0x08000252   0x08000252   0x00000000   Code   RO         3891    .ARM.Collect$$libinit$$00000021  c_w.l(libinit2.o)
    0x08000252   0x08000252   0x00000000   Code   RO         3893    .ARM.Collect$$libinit$$00000023  c_w.l(libinit2.o)
    0x08000252   0x08000252   0x00000000   Code   RO         3895    .ARM.Collect$$libinit$$00000025  c_w.l(libinit2.o)
    0x08000252   0x08000252   0x00000000   Code   RO         3899    .ARM.Collect$$libinit$$0000002C  c_w.l(libinit2.o)
    0x08000252   0x08000252   0x00000000   Code   RO         3901    .ARM.Collect$$libinit$$0000002E  c_w.l(libinit2.o)
    0x08000252   0x08000252   0x00000000   Code   RO         3903    .ARM.Collect$$libinit$$00000030  c_w.l(libinit2.o)
    0x08000252   0x08000252   0x00000000   Code   RO         3905    .ARM.Collect$$libinit$$00000032  c_w.l(libinit2.o)
    0x08000252   0x08000252   0x00000002   Code   RO         3906    .ARM.Collect$$libinit$$00000033  c_w.l(libinit2.o)
    0x08000254   0x08000254   0x00000002   Code   RO         3937    .ARM.Collect$$libshutdown$$00000000  c_w.l(libshutdown.o)
    0x08000256   0x08000256   0x00000000   Code   RO         3963    .ARM.Collect$$libshutdown$$00000002  c_w.l(libshutdown2.o)
    0x08000256   0x08000256   0x00000000   Code   RO         3965    .ARM.Collect$$libshutdown$$00000004  c_w.l(libshutdown2.o)
    0x08000256   0x08000256   0x00000000   Code   RO         3968    .ARM.Collect$$libshutdown$$00000007  c_w.l(libshutdown2.o)
    0x08000256   0x08000256   0x00000000   Code   RO         3971    .ARM.Collect$$libshutdown$$0000000A  c_w.l(libshutdown2.o)
    0x08000256   0x08000256   0x00000000   Code   RO         3973    .ARM.Collect$$libshutdown$$0000000C  c_w.l(libshutdown2.o)
    0x08000256   0x08000256   0x00000000   Code   RO         3976    .ARM.Collect$$libshutdown$$0000000F  c_w.l(libshutdown2.o)
    0x08000256   0x08000256   0x00000002   Code   RO         3977    .ARM.Collect$$libshutdown$$00000010  c_w.l(libshutdown2.o)
    0x08000258   0x08000258   0x00000000   Code   RO         3668    .ARM.Collect$$rtentry$$00000000  c_w.l(__rtentry.o)
    0x08000258   0x08000258   0x00000000   Code   RO         3762    .ARM.Collect$$rtentry$$00000002  c_w.l(__rtentry2.o)
    0x08000258   0x08000258   0x00000006   Code   RO         3774    .ARM.Collect$$rtentry$$00000004  c_w.l(__rtentry4.o)
    0x0800025e   0x0800025e   0x00000000   Code   RO         3764    .ARM.Collect$$rtentry$$00000009  c_w.l(__rtentry2.o)
    0x0800025e   0x0800025e   0x00000004   Code   RO         3765    .ARM.Collect$$rtentry$$0000000A  c_w.l(__rtentry2.o)
    0x08000262   0x08000262   0x00000000   Code   RO         3767    .ARM.Collect$$rtentry$$0000000C  c_w.l(__rtentry2.o)
    0x08000262   0x08000262   0x00000008   Code   RO         3768    .ARM.Collect$$rtentry$$0000000D  c_w.l(__rtentry2.o)
    0x0800026a   0x0800026a   0x00000002   Code   RO         3849    .ARM.Collect$$rtexit$$00000000  c_w.l(rtexit.o)
    0x0800026c   0x0800026c   0x00000000   Code   RO         3910    .ARM.Collect$$rtexit$$00000002  c_w.l(rtexit2.o)
    0x0800026c   0x0800026c   0x00000004   Code   RO         3911    .ARM.Collect$$rtexit$$00000003  c_w.l(rtexit2.o)
    0x08000270   0x08000270   0x00000006   Code   RO         3912    .ARM.Collect$$rtexit$$00000004  c_w.l(rtexit2.o)
    0x08000276   0x08000276   0x00000002   PAD
    0x08000278   0x08000278   0x00000040   Code   RO           20    .text               startup_stm32f10x_hd.o
    0x080002b8   0x080002b8   0x00000024   Code   RO         3583    .text               c_w.l(vsprintf.o)
    0x080002dc   0x080002dc   0x0000002c   Code   RO         3585    .text               c_w.l(__2sprintf.o)
    0x08000308   0x08000308   0x00000052   Code   RO         3591    .text               c_w.l(_printf_str.o)
    0x0800035a   0x0800035a   0x00000002   PAD
    0x0800035c   0x0800035c   0x00000078   Code   RO         3593    .text               c_w.l(_printf_dec.o)
    0x080003d4   0x080003d4   0x00000188   Code   RO         3612    .text               c_w.l(__printf_flags_ss_wp.o)
    0x0800055c   0x0800055c   0x00000058   Code   RO         3618    .text               c_w.l(memcmp.o)
    0x080005b4   0x080005b4   0x0000003e   Code   RO         3622    .text               c_w.l(strlen.o)
    0x080005f2   0x080005f2   0x0000008a   Code   RO         3626    .text               c_w.l(rt_memcpy_v6.o)
    0x0800067c   0x0800067c   0x00000084   Code   RO         3628    .text               c_w.l(rt_memmove_v6.o)
    0x08000700   0x08000700   0x00000010   Code   RO         3630    .text               c_w.l(aeabi_memset.o)
    0x08000710   0x08000710   0x00000044   Code   RO         3632    .text               c_w.l(rt_memclr.o)
    0x08000754   0x08000754   0x0000004e   Code   RO         3634    .text               c_w.l(rt_memclr_w.o)
    0x080007a2   0x080007a2   0x00000006   Code   RO         3636    .text               c_w.l(heapauxi.o)
    0x080007a8   0x080007a8   0x0000004e   Code   RO         3673    .text               c_w.l(_printf_pad.o)
    0x080007f6   0x080007f6   0x00000024   Code   RO         3675    .text               c_w.l(_printf_truncate.o)
    0x0800081a   0x0800081a   0x000000b2   Code   RO         3677    .text               c_w.l(_printf_intcommon.o)
    0x080008cc   0x080008cc   0x00000028   Code   RO         3679    .text               c_w.l(_printf_charcount.o)
    0x080008f4   0x080008f4   0x00000030   Code   RO         3681    .text               c_w.l(_printf_char_common.o)
    0x08000924   0x08000924   0x0000000a   Code   RO         3683    .text               c_w.l(_sputc.o)
    0x0800092e   0x0800092e   0x0000002c   Code   RO         3685    .text               c_w.l(_printf_char.o)
    0x0800095a   0x0800095a   0x00000002   PAD
    0x0800095c   0x0800095c   0x000000bc   Code   RO         3687    .text               c_w.l(_printf_wctomb.o)
    0x08000a18   0x08000a18   0x0000007c   Code   RO         3690    .text               c_w.l(_printf_longlong_dec.o)
    0x08000a94   0x08000a94   0x00000070   Code   RO         3696    .text               c_w.l(_printf_oct_int_ll.o)
    0x08000b04   0x08000b04   0x00000094   Code   RO         3716    .text               c_w.l(_printf_hex_int_ll_ptr.o)
    0x08000b98   0x08000b98   0x00000064   Code   RO         3740    .text               c_w.l(rt_memcpy_w.o)
    0x08000bfc   0x08000bfc   0x0000007a   Code   RO         3742    .text               c_w.l(rt_memmove_w.o)
    0x08000c76   0x08000c76   0x0000008a   Code   RO         3778    .text               c_w.l(lludiv10.o)
    0x08000d00   0x08000d00   0x0000041e   Code   RO         3780    .text               c_w.l(_printf_fp_dec.o)
    0x0800111e   0x0800111e   0x00000002   PAD
    0x08001120   0x08001120   0x000002fc   Code   RO         3782    .text               c_w.l(_printf_fp_hex.o)
    0x0800141c   0x0800141c   0x0000002c   Code   RO         3787    .text               c_w.l(_printf_wchar.o)
    0x08001448   0x08001448   0x00000040   Code   RO         3789    .text               c_w.l(_wcrtomb.o)
    0x08001488   0x08001488   0x0000004a   Code   RO         3791    .text               c_w.l(sys_stackheap_outer.o)
    0x080014d2   0x080014d2   0x00000002   PAD
    0x080014d4   0x080014d4   0x00000010   Code   RO         3793    .text               c_w.l(rt_ctype_table.o)
    0x080014e4   0x080014e4   0x00000008   Code   RO         3798    .text               c_w.l(rt_locale_intlibspace.o)
    0x080014ec   0x080014ec   0x00000080   Code   RO         3800    .text               c_w.l(_printf_fp_infnan.o)
    0x0800156c   0x0800156c   0x000000e4   Code   RO         3802    .text               c_w.l(bigflt0.o)
    0x08001650   0x08001650   0x00000012   Code   RO         3830    .text               c_w.l(exit.o)
    0x08001662   0x08001662   0x00000002   PAD
    0x08001664   0x08001664   0x00000008   Code   RO         3846    .text               c_w.l(libspace.o)
    0x0800166c   0x0800166c   0x00000080   Code   RO         3860    .text               c_w.l(strcmpv7m.o)
    0x080016ec   0x080016ec   0x0000000c   Code   RO         3907    .text               c_w.l(sys_exit.o)
    0x080016f8   0x080016f8   0x00000002   Code   RO         3926    .text               c_w.l(use_no_semi.o)
    0x080016fa   0x080016fa   0x00000000   Code   RO         3928    .text               c_w.l(indicate_semi.o)
    0x080016fa   0x080016fa   0x0000003e   Code   RO         3805    CL$$btod_d2e        c_w.l(btod.o)
    0x08001738   0x08001738   0x00000046   Code   RO         3807    CL$$btod_d2e_denorm_low  c_w.l(btod.o)
    0x0800177e   0x0800177e   0x00000060   Code   RO         3806    CL$$btod_d2e_norm_op1  c_w.l(btod.o)
    0x080017de   0x080017de   0x00000338   Code   RO         3815    CL$$btod_div_common  c_w.l(btod.o)
    0x08001b16   0x08001b16   0x000000dc   Code   RO         3812    CL$$btod_e2e        c_w.l(btod.o)
    0x08001bf2   0x08001bf2   0x0000002a   Code   RO         3809    CL$$btod_ediv       c_w.l(btod.o)
    0x08001c1c   0x08001c1c   0x0000002a   Code   RO         3808    CL$$btod_emul       c_w.l(btod.o)
    0x08001c46   0x08001c46   0x00000244   Code   RO         3814    CL$$btod_mult_common  c_w.l(btod.o)
    0x08001e8a   0x08001e8a   0x00000004   Code   RO         3274    i.BusFault_Handler  stm32f10x_it.o
    0x08001e8e   0x08001e8e   0x00000002   PAD
    0x08001e90   0x08001e90   0x0000005c   Code   RO         3031    i.Config_Backup     config.o
    0x08001eec   0x08001eec   0x00000050   Code   RO         3034    i.Config_Loop       config.o
    0x08001f3c   0x08001f3c   0x00000024   Code   RO         3035    i.Config_Read       config.o
    0x08001f60   0x08001f60   0x000000a0   Code   RO         3039    i.Config_Write      config.o
    0x08002000   0x08002000   0x00000002   Code   RO         3275    i.DebugMon_Handler  stm32f10x_it.o
    0x08002002   0x08002002   0x00000002   PAD
    0x08002004   0x08002004   0x0000004c   Code   RO          607    i.FLASH_ErasePage   stm32f10x_flash.o
    0x08002050   0x08002050   0x00000034   Code   RO          608    i.FLASH_GetBank1Status  stm32f10x_flash.o
    0x08002084   0x08002084   0x00000014   Code   RO          617    i.FLASH_Lock        stm32f10x_flash.o
    0x08002098   0x08002098   0x00000040   Code   RO          620    i.FLASH_ProgramHalfWord  stm32f10x_flash.o
    0x080020d8   0x080020d8   0x00000018   Code   RO          625    i.FLASH_Unlock      stm32f10x_flash.o
    0x080020f0   0x080020f0   0x00000026   Code   RO          629    i.FLASH_WaitForLastOperation  stm32f10x_flash.o
    0x08002116   0x08002116   0x00000116   Code   RO          785    i.GPIO_Init         stm32f10x_gpio.o
    0x0800222c   0x0800222c   0x00000004   Code   RO          792    i.GPIO_ResetBits    stm32f10x_gpio.o
    0x08002230   0x08002230   0x00000004   Code   RO          793    i.GPIO_SetBits      stm32f10x_gpio.o
    0x08002234   0x08002234   0x0000000c   Code   RO         2401    i.Get_MillisecTimer_NBIOT_delay  timer.o
    0x08002240   0x08002240   0x0000000c   Code   RO         2403    i.Get_SysTick       timer.o
    0x0800224c   0x0800224c   0x0000000c   Code   RO         2404    i.Get_SysmilliTick  timer.o
    0x08002258   0x08002258   0x0000000c   Code   RO         3376    i.Get_login_success_flag  user_m5310.o
    0x08002264   0x08002264   0x00000008   Code   RO         3276    i.HardFault_Handler  stm32f10x_it.o
    0x0800226c   0x0800226c   0x00000004   Code   RO         3277    i.MemManage_Handler  stm32f10x_it.o
    0x08002270   0x08002270   0x000003d8   Code   RO         3377    i.NBIOT_AT_loop     user_m5310.o
    0x08002648   0x08002648   0x00000010   Code   RO         3378    i.NBIOT_Pipe_Reset  user_m5310.o
    0x08002658   0x08002658   0x00000098   Code   RO         3379    i.NBIOT_Report_Data  user_m5310.o
    0x080026f0   0x080026f0   0x0000006c   Code   RO         3380    i.NBIOT_Status_Reset  user_m5310.o
    0x0800275c   0x0800275c   0x0000003c   Code   RO         3381    i.NBIOT_init        user_m5310.o
    0x08002798   0x08002798   0x000000ac   Code   RO         3382    i.NBIOT_loop        user_m5310.o
    0x08002844   0x08002844   0x0000008c   Code   RO         2644    i.NBIOT_normal_output  m5310_hard.o
    0x080028d0   0x080028d0   0x000000d4   Code   RO         3383    i.NBIOT_parse_AT_loop  user_m5310.o
    0x080029a4   0x080029a4   0x0000000c   Code   RO         3384    i.NBIOT_power_reset  user_m5310.o
    0x080029b0   0x080029b0   0x00000028   Code   RO         3385    i.NBIOT_task        user_m5310.o
    0x080029d8   0x080029d8   0x0000008c   Code   RO         3386    i.NBIOT_updata_loop  user_m5310.o
    0x08002a64   0x08002a64   0x0000002a   Code   RO         3145    i.NMEA_Pow          public.o
    0x08002a8e   0x08002a8e   0x0000029a   Code   RO         3146    i.NMEA_Str2num      public.o
    0x08002d28   0x08002d28   0x00000002   Code   RO         3278    i.NMI_Handler       stm32f10x_it.o
    0x08002d2a   0x08002d2a   0x0000000c   Code   RO         2388    i.NVIC_Configuration  sys.o
    0x08002d36   0x08002d36   0x00000002   PAD
    0x08002d38   0x08002d38   0x00000070   Code   RO           24    i.NVIC_Init         misc.o
    0x08002da8   0x08002da8   0x00000014   Code   RO           25    i.NVIC_PriorityGroupConfig  misc.o
    0x08002dbc   0x08002dbc   0x000000a4   Code   RO         3387    i.Nbiot_AT_CGATT    user_m5310.o
    0x08002e60   0x08002e60   0x000000f0   Code   RO         3388    i.Nbiot_AT_CGREG    user_m5310.o
    0x08002f50   0x08002f50   0x00000094   Code   RO         3389    i.Nbiot_AT_CGSN     user_m5310.o
    0x08002fe4   0x08002fe4   0x00000094   Code   RO         3390    i.Nbiot_AT_CIMI     user_m5310.o
    0x08003078   0x08003078   0x0000011c   Code   RO         3391    i.Nbiot_AT_CSQ      user_m5310.o
    0x08003194   0x08003194   0x00000044   Code   RO         3392    i.Nbiot_AT_MIPLADDOBJ  user_m5310.o
    0x080031d8   0x080031d8   0x00000058   Code   RO         3393    i.Nbiot_AT_MIPLCLOSE  user_m5310.o
    0x08003230   0x08003230   0x00000084   Code   RO         3394    i.Nbiot_AT_MIPLCREATE  user_m5310.o
    0x080032b4   0x080032b4   0x00000044   Code   RO         3395    i.Nbiot_AT_MIPLDEL  user_m5310.o
    0x080032f8   0x080032f8   0x00000044   Code   RO         3396    i.Nbiot_AT_MIPLDELOBJ  user_m5310.o
    0x0800333c   0x0800333c   0x00000044   Code   RO         3397    i.Nbiot_AT_MIPLNOTIFY  user_m5310.o
    0x08003380   0x08003380   0x000000e0   Code   RO         3398    i.Nbiot_AT_MIPLOPEN  user_m5310.o
    0x08003460   0x08003460   0x00000002   Code   RO         3399    i.Nbiot_AT_Reset    user_m5310.o
    0x08003462   0x08003462   0x00000002   PAD
    0x08003464   0x08003464   0x0000008c   Code   RO         3400    i.Nbiot_AT_Test     user_m5310.o
    0x080034f0   0x080034f0   0x00000002   Code   RO         3279    i.PendSV_Handler    stm32f10x_it.o
    0x080034f2   0x080034f2   0x00000032   Code   RO         3147    i.Pipe1_Remove      public.o
    0x08003524   0x08003524   0x0000001c   Code   RO         3148    i.Pipe1_Reset       public.o
    0x08003540   0x08003540   0x00000092   Code   RO         3149    i.Pipe_Block_Input  public.o
    0x080035d2   0x080035d2   0x00000002   PAD
    0x080035d4   0x080035d4   0x00000020   Code   RO         1003    i.RCC_APB1PeriphClockCmd  stm32f10x_rcc.o
    0x080035f4   0x080035f4   0x00000020   Code   RO         1004    i.RCC_APB1PeriphResetCmd  stm32f10x_rcc.o
    0x08003614   0x08003614   0x00000020   Code   RO         1005    i.RCC_APB2PeriphClockCmd  stm32f10x_rcc.o
    0x08003634   0x08003634   0x00000020   Code   RO         1006    i.RCC_APB2PeriphResetCmd  stm32f10x_rcc.o
    0x08003654   0x08003654   0x000000d4   Code   RO         1013    i.RCC_GetClocksFreq  stm32f10x_rcc.o
    0x08003728   0x08003728   0x00000050   Code   RO         2352    i.STMFLASH_Read     stmflash.o
    0x08003778   0x08003778   0x00000006   Code   RO         2353    i.STMFLASH_ReadHalfWord  stmflash.o
    0x0800377e   0x0800377e   0x00000002   PAD
    0x08003780   0x08003780   0x00000174   Code   RO         2354    i.STMFLASH_Write    stmflash.o
    0x080038f4   0x080038f4   0x00000026   Code   RO         2355    i.STMFLASH_Write_NoCheck  stmflash.o
    0x0800391a   0x0800391a   0x00000002   Code   RO         3280    i.SVC_Handler       stm32f10x_it.o
    0x0800391c   0x0800391c   0x00000008   Code   RO         3341    i.SetSysClock       system_stm32f10x.o
    0x08003924   0x08003924   0x000000e0   Code   RO         3342    i.SetSysClockTo72   system_stm32f10x.o
    0x08003a04   0x08003a04   0x0000000c   Code   RO         2406    i.Set_MillisecTimer_NBIOT_delay  timer.o
    0x08003a10   0x08003a10   0x00000028   Code   RO         3153    i.SoftReset         public.o
    0x08003a38   0x08003a38   0x0000003c   Code   RO         2797    i.SoftTimer         main.o
    0x08003a74   0x08003a74   0x00000028   Code   RO           28    i.SysTick_CLKSourceConfig  misc.o
    0x08003a9c   0x08003a9c   0x00000002   Code   RO         3281    i.SysTick_Handler   stm32f10x_it.o
    0x08003a9e   0x08003a9e   0x00000002   PAD
    0x08003aa0   0x08003aa0   0x00000060   Code   RO         3344    i.SystemInit        system_stm32f10x.o
    0x08003b00   0x08003b00   0x0000004c   Code   RO         2409    i.TIM3_IRQHandler   timer.o
    0x08003b4c   0x08003b4c   0x00000060   Code   RO         2410    i.TIM3_Int_Init     timer.o
    0x08003bac   0x08003bac   0x00000064   Code   RO         2412    i.TIM4_IRQHandler   timer.o
    0x08003c10   0x08003c10   0x00000060   Code   RO         2413    i.TIM4_Int_Init     timer.o
    0x08003c70   0x08003c70   0x00000006   Code   RO         1452    i.TIM_ClearITPendingBit  stm32f10x_tim.o
    0x08003c76   0x08003c76   0x00000018   Code   RO         1457    i.TIM_Cmd           stm32f10x_tim.o
    0x08003c8e   0x08003c8e   0x00000022   Code   RO         1478    i.TIM_GetITStatus   stm32f10x_tim.o
    0x08003cb0   0x08003cb0   0x00000012   Code   RO         1482    i.TIM_ITConfig      stm32f10x_tim.o
    0x08003cc2   0x08003cc2   0x00000002   PAD
    0x08003cc4   0x08003cc4   0x000000a4   Code   RO         1528    i.TIM_TimeBaseInit  stm32f10x_tim.o
    0x08003d68   0x08003d68   0x00000080   Code   RO         2496    i.USART1_IRQHandler  usart.o
    0x08003de8   0x08003de8   0x0000003c   Code   RO         2497    i.USART2_IRQHandler  usart.o
    0x08003e24   0x08003e24   0x00000080   Code   RO         2498    i.USART3_IRQHandler  usart.o
    0x08003ea4   0x08003ea4   0x00000018   Code   RO         1996    i.USART_Cmd         stm32f10x_usart.o
    0x08003ebc   0x08003ebc   0x0000009c   Code   RO         1998    i.USART_DeInit      stm32f10x_usart.o
    0x08003f58   0x08003f58   0x0000001a   Code   RO         1999    i.USART_GetFlagStatus  stm32f10x_usart.o
    0x08003f72   0x08003f72   0x00000054   Code   RO         2000    i.USART_GetITStatus  stm32f10x_usart.o
    0x08003fc6   0x08003fc6   0x0000004a   Code   RO         2002    i.USART_ITConfig    stm32f10x_usart.o
    0x08004010   0x08004010   0x000000d8   Code   RO         2003    i.USART_Init        stm32f10x_usart.o
    0x080040e8   0x080040e8   0x0000000a   Code   RO         2010    i.USART_ReceiveData  stm32f10x_usart.o
    0x080040f2   0x080040f2   0x00000008   Code   RO         2013    i.USART_SendData    stm32f10x_usart.o
    0x080040fa   0x080040fa   0x00000004   Code   RO         3282    i.UsageFault_Handler  stm32f10x_it.o
    0x080040fe   0x080040fe   0x00000028   Code   RO         3844    i.__ARM_fpclassify  m_ws.l(fpclassify.o)
    0x08004126   0x08004126   0x0000000e   Code   RO         3605    i._is_digit         c_w.l(__printf_wp.o)
    0x08004134   0x08004134   0x0000002c   Code   RO         2832    i.chip_read_flash   chip_flash.o
    0x08004160   0x08004160   0x0000002c   Code   RO         2834    i.chip_write_flash  chip_flash.o
    0x0800418c   0x0800418c   0x00000044   Code   RO         2271    i.delay_init        delay.o
    0x080041d0   0x080041d0   0x00000036   Code   RO         2798    i.main              main.o
    0x08004206   0x08004206   0x0000004c   Code   RO         2893    i.my_memmem         common.o
    0x08004252   0x08004252   0x00000002   PAD
    0x08004254   0x08004254   0x00000038   Code   RO         2685    i.nbiot_power_init  nbiot_power.o
    0x0800428c   0x0800428c   0x00000034   Code   RO         2687    i.nbiot_power_loop  nbiot_power.o
    0x080042c0   0x080042c0   0x0000001c   Code   RO         2688    i.nbiot_power_off   nbiot_power.o
    0x080042dc   0x080042dc   0x0000001c   Code   RO         2689    i.nbiot_power_on    nbiot_power.o
    0x080042f8   0x080042f8   0x0000001c   Code   RO         2690    i.nbiot_power_reset  nbiot_power.o
    0x08004314   0x08004314   0x00000014   Code   RO         2500    i.reset_uart_pipe1  usart.o
    0x08004328   0x08004328   0x00000018   Code   RO         2501    i.reset_uart_pipe2  usart.o
    0x08004340   0x08004340   0x00000020   Code   RO         2502    i.reset_uart_pipe3  usart.o
    0x08004360   0x08004360   0x000000ac   Code   RO         2503    i.uart1_init        usart.o
    0x0800440c   0x0800440c   0x00000034   Code   RO         2504    i.uart1_output      usart.o
    0x08004440   0x08004440   0x0000004c   Code   RO         2505    i.uart1_printf      usart.o
    0x0800448c   0x0800448c   0x000000ac   Code   RO         2506    i.uart2_init        usart.o
    0x08004538   0x08004538   0x00000034   Code   RO         2507    i.uart2_output      usart.o
    0x0800456c   0x0800456c   0x0000004c   Code   RO         2508    i.uart2_printf      usart.o
    0x080045b8   0x080045b8   0x000000b0   Code   RO         2509    i.uart3_init        usart.o
    0x08004668   0x08004668   0x00000038   Code   RO         2512    i.uart_init         usart.o
    0x080046a0   0x080046a0   0x00000070   Code   RO         2300    i.user_led_init     led.o
    0x08004710   0x08004710   0x00000054   Code   RO         2301    i.user_led_loop     led.o
    0x08004764   0x08004764   0x00000038   Code   RO         2302    i.user_led_milliloop  led.o
    0x0800479c   0x0800479c   0x0000000c   Code   RO         2303    i.user_led_task     led.o
    0x080047a8   0x080047a8   0x0000002c   Code   RO         3828    locale$$code        c_w.l(lc_numeric_c.o)
    0x080047d4   0x080047d4   0x0000002c   Code   RO         3854    locale$$code        c_w.l(lc_ctype_c.o)
    0x08004800   0x08004800   0x00000004   Code   RO         3752    x$fpl$printf1       fz_ws.l(printf1.o)
    0x08004804   0x08004804   0x00000004   Code   RO         3754    x$fpl$printf2       fz_ws.l(printf2.o)
    0x08004808   0x08004808   0x00000000   Code   RO         3760    x$fpl$usenofp       fz_ws.l(usenofp.o)
    0x08004808   0x08004808   0x00000011   Data   RO         3613    .constdata          c_w.l(__printf_flags_ss_wp.o)
    0x08004819   0x08004819   0x00000003   PAD
    0x0800481c   0x0800481c   0x00000008   Data   RO         3688    .constdata          c_w.l(_printf_wctomb.o)
    0x08004824   0x08004824   0x00000028   Data   RO         3717    .constdata          c_w.l(_printf_hex_int_ll_ptr.o)
    0x0800484c   0x0800484c   0x00000026   Data   RO         3783    .constdata          c_w.l(_printf_fp_hex.o)
    0x08004872   0x08004872   0x00000002   PAD
    0x08004874   0x08004874   0x00000094   Data   RO         3803    .constdata          c_w.l(bigflt0.o)
    0x08004908   0x08004908   0x0000007d   Data   RO         3402    .conststring        user_m5310.o
    0x08004985   0x08004985   0x00000003   PAD
    0x08004988   0x08004988   0x00000020   Data   RO         3978    Region$$Table       anon$$obj.o
    0x080049a8   0x080049a8   0x0000001c   Data   RO         3827    locale$$data        c_w.l(lc_numeric_c.o)
    0x080049c4   0x080049c4   0x00000110   Data   RO         3853    locale$$data        c_w.l(lc_ctype_c.o)


    Execution Region RW_IRAM1 (Exec base: 0x20000000, Load base: 0x08004ad4, Size: 0x00002988, Max: 0x00005000, ABSOLUTE)

    Exec Addr    Load Addr    Size         Type   Attr      Idx    E Section Name        Object

    0x20000000   0x08004ad4   0x00000014   Data   RW         1033    .data               stm32f10x_rcc.o
    0x20000014   0x08004ae8   0x00000004   Data   RW         2274    .data               delay.o
    0x20000018   0x08004aec   0x0000000c   Data   RW         2304    .data               led.o
    0x20000024   0x08004af8   0x0000001c   Data   RW         2414    .data               timer.o
    0x20000040   0x08004b14   0x00000020   Data   RW         2514    .data               usart.o
    0x20000060   0x08004b34   0x00000010   Data   RW         2647    .data               m5310_hard.o
    0x20000070   0x08004b44   0x00000009   Data   RW         2691    .data               nbiot_power.o
    0x20000079   0x08004b4d   0x00000003   PAD
    0x2000007c   0x08004b50   0x00000004   Data   RW         2799    .data               main.o
    0x20000080   0x08004b54   0x00000018   Data   RW         3045    .data               config.o
    0x20000098   0x08004b6c   0x00000014   Data   RW         3345    .data               system_stm32f10x.o
    0x200000ac   0x08004b80   0x00000048   Data   RW         3403    .data               user_m5310.o
    0x200000f4        -       0x00001000   Zero   RW         2356    .bss                stmflash.o
    0x200010f4        -       0x00000ae6   Zero   RW         2513    .bss                usart.o
    0x20001bda        -       0x0000012c   Zero   RW         2646    .bss                m5310_hard.o
    0x20001d06        -       0x00000200   Zero   RW         3044    .bss                config.o
    0x20001f06        -       0x00000400   Zero   RW         3156    .bss                public.o
    0x20002306        -       0x00000020   Zero   RW         3401    .bss                user_m5310.o
    0x20002326   0x08004bc8   0x00000002   PAD
    0x20002328        -       0x00000060   Zero   RW         3847    .bss                c_w.l(libspace.o)
    0x20002388        -       0x00000200   Zero   RW           18    HEAP                startup_stm32f10x_hd.o
    0x20002588        -       0x00000400   Zero   RW           17    STACK               startup_stm32f10x_hd.o


==============================================================================

Image component sizes


      Code (inc. data)   RO Data    RW Data    ZI Data      Debug   Object Name

        88          0          0          0          0       1417   chip_flash.o
        76          0          0          0          0        840   common.o
       368         52          0         24        512       4722   config.o
         0          0          0          0          0       4540   core_cm3.o
        68         18          0          4          0        629   delay.o
         0          0          0          0          0        628   dht11.o
       264         42          0         12          0       3412   led.o
       140         10          0         16        300       1240   m5310_hard.o
       114         22          0          4          0        899   main.o
       172         22          0          0          0     228793   misc.o
       192         36          0          9          0       2738   nbiot_power.o
       972         10          0          0       1024      21426   public.o
        64         26        304          0       1536        800   startup_stm32f10x_hd.o
       274         30          0          0          0       9874   stm32f10x_flash.o
       286          0          0          0          0       3100   stm32f10x_gpio.o
        30          0          0          0          0       3838   stm32f10x_it.o
       340         44          0         20          0       5676   stm32f10x_rcc.o
       246         42          0          0          0      24030   stm32f10x_tim.o
       598         28          0          0          0       6900   stm32f10x_usart.o
       496         10          0          0       4096       3894   stmflash.o
        12          0          0          0          0        441   sys.o
       328         28          0         20          0       2185   system_stm32f10x.o
       416         78          0         28          0       4651   timer.o
      1224        110          0         32       2790      10738   usart.o
      3750       1236        125         72         32      15819   user_m5310.o

    ----------------------------------------------------------------------
     10536       1844        464        244      10292     363230   Object Totals
         0          0         32          0          0          0   (incl. Generated)
        18          0          3          3          2          0   (incl. Padding)

    ----------------------------------------------------------------------

      Code (inc. data)   RO Data    RW Data    ZI Data      Debug   Library Member Name

        44          6          0          0          0         84   __2sprintf.o
         8          0          0          0          0         68   __main.o
       392          4         17          0          0         92   __printf_flags_ss_wp.o
        14          0          0          0          0         68   __printf_wp.o
         0          0          0          0          0          0   __rtentry.o
        12          0          0          0          0          0   __rtentry2.o
         6          0          0          0          0          0   __rtentry4.o
        52          8          0          0          0          0   __scatter.o
        26          0          0          0          0          0   __scatter_copy.o
        28          0          0          0          0          0   __scatter_zi.o
         6          0          0          0          0          0   _printf_a.o
         6          0          0          0          0          0   _printf_c.o
        44          0          0          0          0        108   _printf_char.o
        48          6          0          0          0         96   _printf_char_common.o
        40          0          0          0          0         68   _printf_charcount.o
         6          0          0          0          0          0   _printf_d.o
       120         16          0          0          0         92   _printf_dec.o
         6          0          0          0          0          0   _printf_e.o
         6          0          0          0          0          0   _printf_f.o
      1054          0          0          0          0        216   _printf_fp_dec.o
       764          8         38          0          0        100   _printf_fp_hex.o
       128         16          0          0          0         84   _printf_fp_infnan.o
         6          0          0          0          0          0   _printf_g.o
       148          4         40          0          0        160   _printf_hex_int_ll_ptr.o
         6          0          0          0          0          0   _printf_i.o
       178          0          0          0          0         88   _printf_intcommon.o
        10          0          0          0          0          0   _printf_l.o
         6          0          0          0          0          0   _printf_lc.o
        10          0          0          0          0          0   _printf_ll.o
         6          0          0          0          0          0   _printf_lld.o
         6          0          0          0          0          0   _printf_lli.o
         6          0          0          0          0          0   _printf_llo.o
         6          0          0          0          0          0   _printf_llu.o
         6          0          0          0          0          0   _printf_llx.o
       124         16          0          0          0         92   _printf_longlong_dec.o
         6          0          0          0          0          0   _printf_ls.o
         6          0          0          0          0          0   _printf_n.o
         6          0          0          0          0          0   _printf_o.o
       112         10          0          0          0        124   _printf_oct_int_ll.o
         6          0          0          0          0          0   _printf_p.o
        78          0          0          0          0        108   _printf_pad.o
         0          0          0          0          0          0   _printf_percent.o
         4          0          0          0          0          0   _printf_percent_end.o
         6          0          0          0          0          0   _printf_s.o
        82          0          0          0          0         80   _printf_str.o
        36          0          0          0          0         84   _printf_truncate.o
         6          0          0          0          0          0   _printf_u.o
        44          0          0          0          0        108   _printf_wchar.o
       188          6          8          0          0         92   _printf_wctomb.o
         6          0          0          0          0          0   _printf_x.o
        10          0          0          0          0         68   _sputc.o
        64          0          0          0          0         92   _wcrtomb.o
        16          0          0          0          0         68   aeabi_memset.o
       228          4        148          0          0         96   bigflt0.o
      1936        128          0          0          0        672   btod.o
        18          0          0          0          0         80   exit.o
         6          0          0          0          0        152   heapauxi.o
         0          0          0          0          0          0   indicate_semi.o
        44         10        272          0          0         76   lc_ctype_c.o
        44         10         28          0          0         76   lc_numeric_c.o
         2          0          0          0          0          0   libinit.o
        30          0          0          0          0          0   libinit2.o
         2          0          0          0          0          0   libshutdown.o
         2          0          0          0          0          0   libshutdown2.o
         8          4          0          0         96         68   libspace.o
       138          0          0          0          0         80   lludiv10.o
        88          0          0          0          0         76   memcmp.o
        16          4          0          0          0         76   rt_ctype_table.o
         8          4          0          0          0         68   rt_locale_intlibspace.o
        68          0          0          0          0         68   rt_memclr.o
        78          0          0          0          0         80   rt_memclr_w.o
       138          0          0          0          0         68   rt_memcpy_v6.o
       100          0          0          0          0         80   rt_memcpy_w.o
       132          0          0          0          0         68   rt_memmove_v6.o
       122          0          0          0          0         80   rt_memmove_w.o
         2          0          0          0          0          0   rtexit.o
        10          0          0          0          0          0   rtexit2.o
       128          0          0          0          0         68   strcmpv7m.o
        62          0          0          0          0         76   strlen.o
        12          4          0          0          0         68   sys_exit.o
        74          0          0          0          0         80   sys_stackheap_outer.o
         2          0          0          0          0         68   use_no_semi.o
        36          4          0          0          0         76   vsprintf.o
         4          0          0          0          0         68   printf1.o
         4          0          0          0          0         68   printf2.o
         0          0          0          0          0          0   usenofp.o
        40          0          0          0          0         68   fpclassify.o

    ----------------------------------------------------------------------
      7600        272        556          0         96       4844   Library Totals
        14          0          5          0          0          0   (incl. Padding)

    ----------------------------------------------------------------------

      Code (inc. data)   RO Data    RW Data    ZI Data      Debug   Library Name

      7538        272        551          0         96       4640   c_w.l
         8          0          0          0          0        136   fz_ws.l
        40          0          0          0          0         68   m_ws.l

    ----------------------------------------------------------------------
      7600        272        556          0         96       4844   Library Totals

    ----------------------------------------------------------------------

==============================================================================


      Code (inc. data)   RO Data    RW Data    ZI Data      Debug   

     18136       2116       1020        244      10388     359334   Grand Totals
     18136       2116       1020        244      10388     359334   ELF Image Totals
     18136       2116       1020        244          0          0   ROM Totals

==============================================================================

    Total RO  Size (Code + RO Data)                19156 (  18.71kB)
    Total RW  Size (RW Data + ZI Data)             10632 (  10.38kB)
    Total ROM Size (Code + RO Data + RW Data)      19400 (  18.95kB)

==============================================================================

